
ctarget:     file format elf64-x86-64


Disassembly of section .init:

0000000000400c48 <_init>:
  400c48:	48 83 ec 08          	sub    $0x8,%rsp
  400c4c:	48 8b 05 a5 33 20 00 	mov    0x2033a5(%rip),%rax        # 603ff8 <_DYNAMIC+0x1d0>
  400c53:	48 85 c0             	test   %rax,%rax
  400c56:	74 05                	je     400c5d <_init+0x15>
  400c58:	e8 43 02 00 00       	callq  400ea0 <socket@plt+0x10>
  400c5d:	48 83 c4 08          	add    $0x8,%rsp
  400c61:	c3                   	retq   

Disassembly of section .plt:

0000000000400c70 <strcasecmp@plt-0x10>:
  400c70:	ff 35 92 33 20 00    	pushq  0x203392(%rip)        # 604008 <_GLOBAL_OFFSET_TABLE_+0x8>
  400c76:	ff 25 94 33 20 00    	jmpq   *0x203394(%rip)        # 604010 <_GLOBAL_OFFSET_TABLE_+0x10>
  400c7c:	0f 1f 40 00          	nopl   0x0(%rax)

0000000000400c80 <strcasecmp@plt>:
  400c80:	ff 25 92 33 20 00    	jmpq   *0x203392(%rip)        # 604018 <_GLOBAL_OFFSET_TABLE_+0x18>
  400c86:	68 00 00 00 00       	pushq  $0x0
  400c8b:	e9 e0 ff ff ff       	jmpq   400c70 <_init+0x28>

0000000000400c90 <__errno_location@plt>:
  400c90:	ff 25 8a 33 20 00    	jmpq   *0x20338a(%rip)        # 604020 <_GLOBAL_OFFSET_TABLE_+0x20>
  400c96:	68 01 00 00 00       	pushq  $0x1
  400c9b:	e9 d0 ff ff ff       	jmpq   400c70 <_init+0x28>

0000000000400ca0 <srandom@plt>:
  400ca0:	ff 25 82 33 20 00    	jmpq   *0x203382(%rip)        # 604028 <_GLOBAL_OFFSET_TABLE_+0x28>
  400ca6:	68 02 00 00 00       	pushq  $0x2
  400cab:	e9 c0 ff ff ff       	jmpq   400c70 <_init+0x28>

0000000000400cb0 <strncmp@plt>:
  400cb0:	ff 25 7a 33 20 00    	jmpq   *0x20337a(%rip)        # 604030 <_GLOBAL_OFFSET_TABLE_+0x30>
  400cb6:	68 03 00 00 00       	pushq  $0x3
  400cbb:	e9 b0 ff ff ff       	jmpq   400c70 <_init+0x28>

0000000000400cc0 <strcpy@plt>:
  400cc0:	ff 25 72 33 20 00    	jmpq   *0x203372(%rip)        # 604038 <_GLOBAL_OFFSET_TABLE_+0x38>
  400cc6:	68 04 00 00 00       	pushq  $0x4
  400ccb:	e9 a0 ff ff ff       	jmpq   400c70 <_init+0x28>

0000000000400cd0 <puts@plt>:
  400cd0:	ff 25 6a 33 20 00    	jmpq   *0x20336a(%rip)        # 604040 <_GLOBAL_OFFSET_TABLE_+0x40>
  400cd6:	68 05 00 00 00       	pushq  $0x5
  400cdb:	e9 90 ff ff ff       	jmpq   400c70 <_init+0x28>

0000000000400ce0 <write@plt>:
  400ce0:	ff 25 62 33 20 00    	jmpq   *0x203362(%rip)        # 604048 <_GLOBAL_OFFSET_TABLE_+0x48>
  400ce6:	68 06 00 00 00       	pushq  $0x6
  400ceb:	e9 80 ff ff ff       	jmpq   400c70 <_init+0x28>

0000000000400cf0 <__stack_chk_fail@plt>:
  400cf0:	ff 25 5a 33 20 00    	jmpq   *0x20335a(%rip)        # 604050 <_GLOBAL_OFFSET_TABLE_+0x50>
  400cf6:	68 07 00 00 00       	pushq  $0x7
  400cfb:	e9 70 ff ff ff       	jmpq   400c70 <_init+0x28>

0000000000400d00 <mmap@plt>:
  400d00:	ff 25 52 33 20 00    	jmpq   *0x203352(%rip)        # 604058 <_GLOBAL_OFFSET_TABLE_+0x58>
  400d06:	68 08 00 00 00       	pushq  $0x8
  400d0b:	e9 60 ff ff ff       	jmpq   400c70 <_init+0x28>

0000000000400d10 <memset@plt>:
  400d10:	ff 25 4a 33 20 00    	jmpq   *0x20334a(%rip)        # 604060 <_GLOBAL_OFFSET_TABLE_+0x60>
  400d16:	68 09 00 00 00       	pushq  $0x9
  400d1b:	e9 50 ff ff ff       	jmpq   400c70 <_init+0x28>

0000000000400d20 <alarm@plt>:
  400d20:	ff 25 42 33 20 00    	jmpq   *0x203342(%rip)        # 604068 <_GLOBAL_OFFSET_TABLE_+0x68>
  400d26:	68 0a 00 00 00       	pushq  $0xa
  400d2b:	e9 40 ff ff ff       	jmpq   400c70 <_init+0x28>

0000000000400d30 <close@plt>:
  400d30:	ff 25 3a 33 20 00    	jmpq   *0x20333a(%rip)        # 604070 <_GLOBAL_OFFSET_TABLE_+0x70>
  400d36:	68 0b 00 00 00       	pushq  $0xb
  400d3b:	e9 30 ff ff ff       	jmpq   400c70 <_init+0x28>

0000000000400d40 <read@plt>:
  400d40:	ff 25 32 33 20 00    	jmpq   *0x203332(%rip)        # 604078 <_GLOBAL_OFFSET_TABLE_+0x78>
  400d46:	68 0c 00 00 00       	pushq  $0xc
  400d4b:	e9 20 ff ff ff       	jmpq   400c70 <_init+0x28>

0000000000400d50 <__libc_start_main@plt>:
  400d50:	ff 25 2a 33 20 00    	jmpq   *0x20332a(%rip)        # 604080 <_GLOBAL_OFFSET_TABLE_+0x80>
  400d56:	68 0d 00 00 00       	pushq  $0xd
  400d5b:	e9 10 ff ff ff       	jmpq   400c70 <_init+0x28>

0000000000400d60 <signal@plt>:
  400d60:	ff 25 22 33 20 00    	jmpq   *0x203322(%rip)        # 604088 <_GLOBAL_OFFSET_TABLE_+0x88>
  400d66:	68 0e 00 00 00       	pushq  $0xe
  400d6b:	e9 00 ff ff ff       	jmpq   400c70 <_init+0x28>

0000000000400d70 <gethostbyname@plt>:
  400d70:	ff 25 1a 33 20 00    	jmpq   *0x20331a(%rip)        # 604090 <_GLOBAL_OFFSET_TABLE_+0x90>
  400d76:	68 0f 00 00 00       	pushq  $0xf
  400d7b:	e9 f0 fe ff ff       	jmpq   400c70 <_init+0x28>

0000000000400d80 <__memmove_chk@plt>:
  400d80:	ff 25 12 33 20 00    	jmpq   *0x203312(%rip)        # 604098 <_GLOBAL_OFFSET_TABLE_+0x98>
  400d86:	68 10 00 00 00       	pushq  $0x10
  400d8b:	e9 e0 fe ff ff       	jmpq   400c70 <_init+0x28>

0000000000400d90 <strtol@plt>:
  400d90:	ff 25 0a 33 20 00    	jmpq   *0x20330a(%rip)        # 6040a0 <_GLOBAL_OFFSET_TABLE_+0xa0>
  400d96:	68 11 00 00 00       	pushq  $0x11
  400d9b:	e9 d0 fe ff ff       	jmpq   400c70 <_init+0x28>

0000000000400da0 <memcpy@plt>:
  400da0:	ff 25 02 33 20 00    	jmpq   *0x203302(%rip)        # 6040a8 <_GLOBAL_OFFSET_TABLE_+0xa8>
  400da6:	68 12 00 00 00       	pushq  $0x12
  400dab:	e9 c0 fe ff ff       	jmpq   400c70 <_init+0x28>

0000000000400db0 <time@plt>:
  400db0:	ff 25 fa 32 20 00    	jmpq   *0x2032fa(%rip)        # 6040b0 <_GLOBAL_OFFSET_TABLE_+0xb0>
  400db6:	68 13 00 00 00       	pushq  $0x13
  400dbb:	e9 b0 fe ff ff       	jmpq   400c70 <_init+0x28>

0000000000400dc0 <random@plt>:
  400dc0:	ff 25 f2 32 20 00    	jmpq   *0x2032f2(%rip)        # 6040b8 <_GLOBAL_OFFSET_TABLE_+0xb8>
  400dc6:	68 14 00 00 00       	pushq  $0x14
  400dcb:	e9 a0 fe ff ff       	jmpq   400c70 <_init+0x28>

0000000000400dd0 <_IO_getc@plt>:
  400dd0:	ff 25 ea 32 20 00    	jmpq   *0x2032ea(%rip)        # 6040c0 <_GLOBAL_OFFSET_TABLE_+0xc0>
  400dd6:	68 15 00 00 00       	pushq  $0x15
  400ddb:	e9 90 fe ff ff       	jmpq   400c70 <_init+0x28>

0000000000400de0 <__isoc99_sscanf@plt>:
  400de0:	ff 25 e2 32 20 00    	jmpq   *0x2032e2(%rip)        # 6040c8 <_GLOBAL_OFFSET_TABLE_+0xc8>
  400de6:	68 16 00 00 00       	pushq  $0x16
  400deb:	e9 80 fe ff ff       	jmpq   400c70 <_init+0x28>

0000000000400df0 <munmap@plt>:
  400df0:	ff 25 da 32 20 00    	jmpq   *0x2032da(%rip)        # 6040d0 <_GLOBAL_OFFSET_TABLE_+0xd0>
  400df6:	68 17 00 00 00       	pushq  $0x17
  400dfb:	e9 70 fe ff ff       	jmpq   400c70 <_init+0x28>

0000000000400e00 <__printf_chk@plt>:
  400e00:	ff 25 d2 32 20 00    	jmpq   *0x2032d2(%rip)        # 6040d8 <_GLOBAL_OFFSET_TABLE_+0xd8>
  400e06:	68 18 00 00 00       	pushq  $0x18
  400e0b:	e9 60 fe ff ff       	jmpq   400c70 <_init+0x28>

0000000000400e10 <fopen@plt>:
  400e10:	ff 25 ca 32 20 00    	jmpq   *0x2032ca(%rip)        # 6040e0 <_GLOBAL_OFFSET_TABLE_+0xe0>
  400e16:	68 19 00 00 00       	pushq  $0x19
  400e1b:	e9 50 fe ff ff       	jmpq   400c70 <_init+0x28>

0000000000400e20 <getopt@plt>:
  400e20:	ff 25 c2 32 20 00    	jmpq   *0x2032c2(%rip)        # 6040e8 <_GLOBAL_OFFSET_TABLE_+0xe8>
  400e26:	68 1a 00 00 00       	pushq  $0x1a
  400e2b:	e9 40 fe ff ff       	jmpq   400c70 <_init+0x28>

0000000000400e30 <strtoul@plt>:
  400e30:	ff 25 ba 32 20 00    	jmpq   *0x2032ba(%rip)        # 6040f0 <_GLOBAL_OFFSET_TABLE_+0xf0>
  400e36:	68 1b 00 00 00       	pushq  $0x1b
  400e3b:	e9 30 fe ff ff       	jmpq   400c70 <_init+0x28>

0000000000400e40 <gethostname@plt>:
  400e40:	ff 25 b2 32 20 00    	jmpq   *0x2032b2(%rip)        # 6040f8 <_GLOBAL_OFFSET_TABLE_+0xf8>
  400e46:	68 1c 00 00 00       	pushq  $0x1c
  400e4b:	e9 20 fe ff ff       	jmpq   400c70 <_init+0x28>

0000000000400e50 <exit@plt>:
  400e50:	ff 25 aa 32 20 00    	jmpq   *0x2032aa(%rip)        # 604100 <_GLOBAL_OFFSET_TABLE_+0x100>
  400e56:	68 1d 00 00 00       	pushq  $0x1d
  400e5b:	e9 10 fe ff ff       	jmpq   400c70 <_init+0x28>

0000000000400e60 <connect@plt>:
  400e60:	ff 25 a2 32 20 00    	jmpq   *0x2032a2(%rip)        # 604108 <_GLOBAL_OFFSET_TABLE_+0x108>
  400e66:	68 1e 00 00 00       	pushq  $0x1e
  400e6b:	e9 00 fe ff ff       	jmpq   400c70 <_init+0x28>

0000000000400e70 <__fprintf_chk@plt>:
  400e70:	ff 25 9a 32 20 00    	jmpq   *0x20329a(%rip)        # 604110 <_GLOBAL_OFFSET_TABLE_+0x110>
  400e76:	68 1f 00 00 00       	pushq  $0x1f
  400e7b:	e9 f0 fd ff ff       	jmpq   400c70 <_init+0x28>

0000000000400e80 <__sprintf_chk@plt>:
  400e80:	ff 25 92 32 20 00    	jmpq   *0x203292(%rip)        # 604118 <_GLOBAL_OFFSET_TABLE_+0x118>
  400e86:	68 20 00 00 00       	pushq  $0x20
  400e8b:	e9 e0 fd ff ff       	jmpq   400c70 <_init+0x28>

0000000000400e90 <socket@plt>:
  400e90:	ff 25 8a 32 20 00    	jmpq   *0x20328a(%rip)        # 604120 <_GLOBAL_OFFSET_TABLE_+0x120>
  400e96:	68 21 00 00 00       	pushq  $0x21
  400e9b:	e9 d0 fd ff ff       	jmpq   400c70 <_init+0x28>

Disassembly of section .plt.got:

0000000000400ea0 <.plt.got>:
  400ea0:	ff 25 52 31 20 00    	jmpq   *0x203152(%rip)        # 603ff8 <_DYNAMIC+0x1d0>
  400ea6:	66 90                	xchg   %ax,%ax

Disassembly of section .text:

0000000000400eb0 <_start>:
  400eb0:	31 ed                	xor    %ebp,%ebp
  400eb2:	49 89 d1             	mov    %rdx,%r9
  400eb5:	5e                   	pop    %rsi
  400eb6:	48 89 e2             	mov    %rsp,%rdx
  400eb9:	48 83 e4 f0          	and    $0xfffffffffffffff0,%rsp
  400ebd:	50                   	push   %rax
  400ebe:	54                   	push   %rsp
  400ebf:	49 c7 c0 f0 2d 40 00 	mov    $0x402df0,%r8
  400ec6:	48 c7 c1 80 2d 40 00 	mov    $0x402d80,%rcx
  400ecd:	48 c7 c7 b5 11 40 00 	mov    $0x4011b5,%rdi
  400ed4:	e8 77 fe ff ff       	callq  400d50 <__libc_start_main@plt>
  400ed9:	f4                   	hlt    
  400eda:	66 0f 1f 44 00 00    	nopw   0x0(%rax,%rax,1)

0000000000400ee0 <deregister_tm_clones>:
  400ee0:	b8 b7 44 60 00       	mov    $0x6044b7,%eax
  400ee5:	55                   	push   %rbp
  400ee6:	48 2d b0 44 60 00    	sub    $0x6044b0,%rax
  400eec:	48 83 f8 0e          	cmp    $0xe,%rax
  400ef0:	48 89 e5             	mov    %rsp,%rbp
  400ef3:	76 1b                	jbe    400f10 <deregister_tm_clones+0x30>
  400ef5:	b8 00 00 00 00       	mov    $0x0,%eax
  400efa:	48 85 c0             	test   %rax,%rax
  400efd:	74 11                	je     400f10 <deregister_tm_clones+0x30>
  400eff:	5d                   	pop    %rbp
  400f00:	bf b0 44 60 00       	mov    $0x6044b0,%edi
  400f05:	ff e0                	jmpq   *%rax
  400f07:	66 0f 1f 84 00 00 00 	nopw   0x0(%rax,%rax,1)
  400f0e:	00 00 
  400f10:	5d                   	pop    %rbp
  400f11:	c3                   	retq   
  400f12:	0f 1f 40 00          	nopl   0x0(%rax)
  400f16:	66 2e 0f 1f 84 00 00 	nopw   %cs:0x0(%rax,%rax,1)
  400f1d:	00 00 00 

0000000000400f20 <register_tm_clones>:
  400f20:	be b0 44 60 00       	mov    $0x6044b0,%esi
  400f25:	55                   	push   %rbp
  400f26:	48 81 ee b0 44 60 00 	sub    $0x6044b0,%rsi
  400f2d:	48 c1 fe 03          	sar    $0x3,%rsi
  400f31:	48 89 e5             	mov    %rsp,%rbp
  400f34:	48 89 f0             	mov    %rsi,%rax
  400f37:	48 c1 e8 3f          	shr    $0x3f,%rax
  400f3b:	48 01 c6             	add    %rax,%rsi
  400f3e:	48 d1 fe             	sar    %rsi
  400f41:	74 15                	je     400f58 <register_tm_clones+0x38>
  400f43:	b8 00 00 00 00       	mov    $0x0,%eax
  400f48:	48 85 c0             	test   %rax,%rax
  400f4b:	74 0b                	je     400f58 <register_tm_clones+0x38>
  400f4d:	5d                   	pop    %rbp
  400f4e:	bf b0 44 60 00       	mov    $0x6044b0,%edi
  400f53:	ff e0                	jmpq   *%rax
  400f55:	0f 1f 00             	nopl   (%rax)
  400f58:	5d                   	pop    %rbp
  400f59:	c3                   	retq   
  400f5a:	66 0f 1f 44 00 00    	nopw   0x0(%rax,%rax,1)

0000000000400f60 <__do_global_dtors_aux>:
  400f60:	80 3d 81 35 20 00 00 	cmpb   $0x0,0x203581(%rip)        # 6044e8 <completed.7585>
  400f67:	75 11                	jne    400f7a <__do_global_dtors_aux+0x1a>
  400f69:	55                   	push   %rbp
  400f6a:	48 89 e5             	mov    %rsp,%rbp
  400f6d:	e8 6e ff ff ff       	callq  400ee0 <deregister_tm_clones>
  400f72:	5d                   	pop    %rbp
  400f73:	c6 05 6e 35 20 00 01 	movb   $0x1,0x20356e(%rip)        # 6044e8 <completed.7585>
  400f7a:	f3 c3                	repz retq 
  400f7c:	0f 1f 40 00          	nopl   0x0(%rax)

0000000000400f80 <frame_dummy>:
  400f80:	bf 20 3e 60 00       	mov    $0x603e20,%edi
  400f85:	48 83 3f 00          	cmpq   $0x0,(%rdi)
  400f89:	75 05                	jne    400f90 <frame_dummy+0x10>
  400f8b:	eb 93                	jmp    400f20 <register_tm_clones>
  400f8d:	0f 1f 00             	nopl   (%rax)
  400f90:	b8 00 00 00 00       	mov    $0x0,%eax
  400f95:	48 85 c0             	test   %rax,%rax
  400f98:	74 f1                	je     400f8b <frame_dummy+0xb>
  400f9a:	55                   	push   %rbp
  400f9b:	48 89 e5             	mov    %rsp,%rbp
  400f9e:	ff d0                	callq  *%rax
  400fa0:	5d                   	pop    %rbp
  400fa1:	e9 7a ff ff ff       	jmpq   400f20 <register_tm_clones>

0000000000400fa6 <usage>:
  400fa6:	48 83 ec 08          	sub    $0x8,%rsp
  400faa:	48 89 fa             	mov    %rdi,%rdx
  400fad:	83 3d 74 35 20 00 00 	cmpl   $0x0,0x203574(%rip)        # 604528 <is_checker>
  400fb4:	74 3e                	je     400ff4 <usage+0x4e>
  400fb6:	be 08 2e 40 00       	mov    $0x402e08,%esi
  400fbb:	bf 01 00 00 00       	mov    $0x1,%edi
  400fc0:	b8 00 00 00 00       	mov    $0x0,%eax
  400fc5:	e8 36 fe ff ff       	callq  400e00 <__printf_chk@plt>
  400fca:	bf 40 2e 40 00       	mov    $0x402e40,%edi
  400fcf:	e8 fc fc ff ff       	callq  400cd0 <puts@plt>
  400fd4:	bf b8 2f 40 00       	mov    $0x402fb8,%edi
  400fd9:	e8 f2 fc ff ff       	callq  400cd0 <puts@plt>
  400fde:	bf 68 2e 40 00       	mov    $0x402e68,%edi
  400fe3:	e8 e8 fc ff ff       	callq  400cd0 <puts@plt>
  400fe8:	bf d2 2f 40 00       	mov    $0x402fd2,%edi
  400fed:	e8 de fc ff ff       	callq  400cd0 <puts@plt>
  400ff2:	eb 32                	jmp    401026 <usage+0x80>
  400ff4:	be ee 2f 40 00       	mov    $0x402fee,%esi
  400ff9:	bf 01 00 00 00       	mov    $0x1,%edi
  400ffe:	b8 00 00 00 00       	mov    $0x0,%eax
  401003:	e8 f8 fd ff ff       	callq  400e00 <__printf_chk@plt>
  401008:	bf 90 2e 40 00       	mov    $0x402e90,%edi
  40100d:	e8 be fc ff ff       	callq  400cd0 <puts@plt>
  401012:	bf b8 2e 40 00       	mov    $0x402eb8,%edi
  401017:	e8 b4 fc ff ff       	callq  400cd0 <puts@plt>
  40101c:	bf 0c 30 40 00       	mov    $0x40300c,%edi
  401021:	e8 aa fc ff ff       	callq  400cd0 <puts@plt>
  401026:	bf 00 00 00 00       	mov    $0x0,%edi
  40102b:	e8 20 fe ff ff       	callq  400e50 <exit@plt>

0000000000401030 <initialize_target>:
  401030:	55                   	push   %rbp
  401031:	53                   	push   %rbx
  401032:	48 81 ec 18 21 00 00 	sub    $0x2118,%rsp
  401039:	89 f5                	mov    %esi,%ebp
  40103b:	64 48 8b 04 25 28 00 	mov    %fs:0x28,%rax
  401042:	00 00 
  401044:	48 89 84 24 08 21 00 	mov    %rax,0x2108(%rsp)
  40104b:	00 
  40104c:	31 c0                	xor    %eax,%eax
  40104e:	89 3d c4 34 20 00    	mov    %edi,0x2034c4(%rip)        # 604518 <check_level>
  401054:	8b 3d 0e 31 20 00    	mov    0x20310e(%rip),%edi        # 604168 <target_id>
  40105a:	e8 f6 1c 00 00       	callq  402d55 <gencookie>
  40105f:	89 05 bf 34 20 00    	mov    %eax,0x2034bf(%rip)        # 604524 <cookie>
  401065:	89 c7                	mov    %eax,%edi
  401067:	e8 e9 1c 00 00       	callq  402d55 <gencookie>
  40106c:	89 05 ae 34 20 00    	mov    %eax,0x2034ae(%rip)        # 604520 <authkey>
  401072:	8b 05 f0 30 20 00    	mov    0x2030f0(%rip),%eax        # 604168 <target_id>
  401078:	8d 78 01             	lea    0x1(%rax),%edi
  40107b:	e8 20 fc ff ff       	callq  400ca0 <srandom@plt>
  401080:	e8 3b fd ff ff       	callq  400dc0 <random@plt>
  401085:	89 c7                	mov    %eax,%edi
  401087:	e8 03 03 00 00       	callq  40138f <scramble>
  40108c:	89 c3                	mov    %eax,%ebx
  40108e:	85 ed                	test   %ebp,%ebp
  401090:	74 18                	je     4010aa <initialize_target+0x7a>
  401092:	bf 00 00 00 00       	mov    $0x0,%edi
  401097:	e8 14 fd ff ff       	callq  400db0 <time@plt>
  40109c:	89 c7                	mov    %eax,%edi
  40109e:	e8 fd fb ff ff       	callq  400ca0 <srandom@plt>
  4010a3:	e8 18 fd ff ff       	callq  400dc0 <random@plt>
  4010a8:	eb 05                	jmp    4010af <initialize_target+0x7f>
  4010aa:	b8 00 00 00 00       	mov    $0x0,%eax
  4010af:	01 c3                	add    %eax,%ebx
  4010b1:	0f b7 db             	movzwl %bx,%ebx
  4010b4:	8d 04 dd 00 01 00 00 	lea    0x100(,%rbx,8),%eax
  4010bb:	89 c0                	mov    %eax,%eax
  4010bd:	48 89 05 dc 33 20 00 	mov    %rax,0x2033dc(%rip)        # 6044a0 <buf_offset>
  4010c4:	c6 05 7d 40 20 00 63 	movb   $0x63,0x20407d(%rip)        # 605148 <target_prefix>
  4010cb:	83 3d d6 33 20 00 00 	cmpl   $0x0,0x2033d6(%rip)        # 6044a8 <notify>
  4010d2:	0f 84 bb 00 00 00    	je     401193 <initialize_target+0x163>
  4010d8:	83 3d 49 34 20 00 00 	cmpl   $0x0,0x203449(%rip)        # 604528 <is_checker>
  4010df:	0f 85 ae 00 00 00    	jne    401193 <initialize_target+0x163>
  4010e5:	be 00 01 00 00       	mov    $0x100,%esi
  4010ea:	48 89 e7             	mov    %rsp,%rdi
  4010ed:	e8 4e fd ff ff       	callq  400e40 <gethostname@plt>
  4010f2:	85 c0                	test   %eax,%eax
  4010f4:	74 25                	je     40111b <initialize_target+0xeb>
  4010f6:	bf e8 2e 40 00       	mov    $0x402ee8,%edi
  4010fb:	e8 d0 fb ff ff       	callq  400cd0 <puts@plt>
  401100:	bf 08 00 00 00       	mov    $0x8,%edi
  401105:	e8 46 fd ff ff       	callq  400e50 <exit@plt>
  40110a:	48 89 e6             	mov    %rsp,%rsi
  40110d:	e8 6e fb ff ff       	callq  400c80 <strcasecmp@plt>
  401112:	85 c0                	test   %eax,%eax
  401114:	74 21                	je     401137 <initialize_target+0x107>
  401116:	83 c3 01             	add    $0x1,%ebx
  401119:	eb 05                	jmp    401120 <initialize_target+0xf0>
  40111b:	bb 00 00 00 00       	mov    $0x0,%ebx
  401120:	48 63 c3             	movslq %ebx,%rax
  401123:	48 8b 3c c5 80 41 60 	mov    0x604180(,%rax,8),%rdi
  40112a:	00 
  40112b:	48 85 ff             	test   %rdi,%rdi
  40112e:	75 da                	jne    40110a <initialize_target+0xda>
  401130:	b8 00 00 00 00       	mov    $0x0,%eax
  401135:	eb 05                	jmp    40113c <initialize_target+0x10c>
  401137:	b8 01 00 00 00       	mov    $0x1,%eax
  40113c:	85 c0                	test   %eax,%eax
  40113e:	75 1c                	jne    40115c <initialize_target+0x12c>
  401140:	48 89 e2             	mov    %rsp,%rdx
  401143:	be 20 2f 40 00       	mov    $0x402f20,%esi
  401148:	bf 01 00 00 00       	mov    $0x1,%edi
  40114d:	e8 ae fc ff ff       	callq  400e00 <__printf_chk@plt>
  401152:	bf 08 00 00 00       	mov    $0x8,%edi
  401157:	e8 f4 fc ff ff       	callq  400e50 <exit@plt>
  40115c:	48 8d bc 24 00 01 00 	lea    0x100(%rsp),%rdi
  401163:	00 
  401164:	e8 56 19 00 00       	callq  402abf <init_driver>
  401169:	85 c0                	test   %eax,%eax
  40116b:	79 26                	jns    401193 <initialize_target+0x163>
  40116d:	48 8d 94 24 00 01 00 	lea    0x100(%rsp),%rdx
  401174:	00 
  401175:	be 60 2f 40 00       	mov    $0x402f60,%esi
  40117a:	bf 01 00 00 00       	mov    $0x1,%edi
  40117f:	b8 00 00 00 00       	mov    $0x0,%eax
  401184:	e8 77 fc ff ff       	callq  400e00 <__printf_chk@plt>
  401189:	bf 08 00 00 00       	mov    $0x8,%edi
  40118e:	e8 bd fc ff ff       	callq  400e50 <exit@plt>
  401193:	48 8b 84 24 08 21 00 	mov    0x2108(%rsp),%rax
  40119a:	00 
  40119b:	64 48 33 04 25 28 00 	xor    %fs:0x28,%rax
  4011a2:	00 00 
  4011a4:	74 05                	je     4011ab <initialize_target+0x17b>
  4011a6:	e8 45 fb ff ff       	callq  400cf0 <__stack_chk_fail@plt>
  4011ab:	48 81 c4 18 21 00 00 	add    $0x2118,%rsp
  4011b2:	5b                   	pop    %rbx
  4011b3:	5d                   	pop    %rbp
  4011b4:	c3                   	retq   

00000000004011b5 <main>:
  4011b5:	41 56                	push   %r14
  4011b7:	41 55                	push   %r13
  4011b9:	41 54                	push   %r12
  4011bb:	55                   	push   %rbp
  4011bc:	53                   	push   %rbx
  4011bd:	41 89 fc             	mov    %edi,%r12d
  4011c0:	48 89 f3             	mov    %rsi,%rbx
  4011c3:	be fa 1d 40 00       	mov    $0x401dfa,%esi
  4011c8:	bf 0b 00 00 00       	mov    $0xb,%edi
  4011cd:	e8 8e fb ff ff       	callq  400d60 <signal@plt>
  4011d2:	be ac 1d 40 00       	mov    $0x401dac,%esi
  4011d7:	bf 07 00 00 00       	mov    $0x7,%edi
  4011dc:	e8 7f fb ff ff       	callq  400d60 <signal@plt>
  4011e1:	be 48 1e 40 00       	mov    $0x401e48,%esi
  4011e6:	bf 04 00 00 00       	mov    $0x4,%edi
  4011eb:	e8 70 fb ff ff       	callq  400d60 <signal@plt>
  4011f0:	83 3d 31 33 20 00 00 	cmpl   $0x0,0x203331(%rip)        # 604528 <is_checker>
  4011f7:	74 20                	je     401219 <main+0x64>
  4011f9:	be 96 1e 40 00       	mov    $0x401e96,%esi
  4011fe:	bf 0e 00 00 00       	mov    $0xe,%edi
  401203:	e8 58 fb ff ff       	callq  400d60 <signal@plt>
  401208:	bf 05 00 00 00       	mov    $0x5,%edi
  40120d:	e8 0e fb ff ff       	callq  400d20 <alarm@plt>
  401212:	bd 2a 30 40 00       	mov    $0x40302a,%ebp
  401217:	eb 05                	jmp    40121e <main+0x69>
  401219:	bd 25 30 40 00       	mov    $0x403025,%ebp
  40121e:	48 8b 05 9b 32 20 00 	mov    0x20329b(%rip),%rax        # 6044c0 <stdin@@GLIBC_2.2.5>
  401225:	48 89 05 e4 32 20 00 	mov    %rax,0x2032e4(%rip)        # 604510 <infile>
  40122c:	41 bd 00 00 00 00    	mov    $0x0,%r13d
  401232:	41 be 00 00 00 00    	mov    $0x0,%r14d
  401238:	e9 c6 00 00 00       	jmpq   401303 <main+0x14e>
  40123d:	83 e8 61             	sub    $0x61,%eax
  401240:	3c 10                	cmp    $0x10,%al
  401242:	0f 87 9c 00 00 00    	ja     4012e4 <main+0x12f>
  401248:	0f b6 c0             	movzbl %al,%eax
  40124b:	ff 24 c5 70 30 40 00 	jmpq   *0x403070(,%rax,8)
  401252:	48 8b 3b             	mov    (%rbx),%rdi
  401255:	e8 4c fd ff ff       	callq  400fa6 <usage>
  40125a:	be fd 32 40 00       	mov    $0x4032fd,%esi
  40125f:	48 8b 3d 62 32 20 00 	mov    0x203262(%rip),%rdi        # 6044c8 <optarg@@GLIBC_2.2.5>
  401266:	e8 a5 fb ff ff       	callq  400e10 <fopen@plt>
  40126b:	48 89 05 9e 32 20 00 	mov    %rax,0x20329e(%rip)        # 604510 <infile>
  401272:	48 85 c0             	test   %rax,%rax
  401275:	0f 85 88 00 00 00    	jne    401303 <main+0x14e>
  40127b:	48 8b 0d 46 32 20 00 	mov    0x203246(%rip),%rcx        # 6044c8 <optarg@@GLIBC_2.2.5>
  401282:	ba 32 30 40 00       	mov    $0x403032,%edx
  401287:	be 01 00 00 00       	mov    $0x1,%esi
  40128c:	48 8b 3d 4d 32 20 00 	mov    0x20324d(%rip),%rdi        # 6044e0 <stderr@@GLIBC_2.2.5>
  401293:	e8 d8 fb ff ff       	callq  400e70 <__fprintf_chk@plt>
  401298:	b8 01 00 00 00       	mov    $0x1,%eax
  40129d:	e9 e4 00 00 00       	jmpq   401386 <main+0x1d1>
  4012a2:	ba 10 00 00 00       	mov    $0x10,%edx
  4012a7:	be 00 00 00 00       	mov    $0x0,%esi
  4012ac:	48 8b 3d 15 32 20 00 	mov    0x203215(%rip),%rdi        # 6044c8 <optarg@@GLIBC_2.2.5>
  4012b3:	e8 78 fb ff ff       	callq  400e30 <strtoul@plt>
  4012b8:	41 89 c6             	mov    %eax,%r14d
  4012bb:	eb 46                	jmp    401303 <main+0x14e>
  4012bd:	ba 0a 00 00 00       	mov    $0xa,%edx
  4012c2:	be 00 00 00 00       	mov    $0x0,%esi
  4012c7:	48 8b 3d fa 31 20 00 	mov    0x2031fa(%rip),%rdi        # 6044c8 <optarg@@GLIBC_2.2.5>
  4012ce:	e8 bd fa ff ff       	callq  400d90 <strtol@plt>
  4012d3:	41 89 c5             	mov    %eax,%r13d
  4012d6:	eb 2b                	jmp    401303 <main+0x14e>
  4012d8:	c7 05 c6 31 20 00 00 	movl   $0x0,0x2031c6(%rip)        # 6044a8 <notify>
  4012df:	00 00 00 
  4012e2:	eb 1f                	jmp    401303 <main+0x14e>
  4012e4:	0f be d2             	movsbl %dl,%edx
  4012e7:	be 4f 30 40 00       	mov    $0x40304f,%esi
  4012ec:	bf 01 00 00 00       	mov    $0x1,%edi
  4012f1:	b8 00 00 00 00       	mov    $0x0,%eax
  4012f6:	e8 05 fb ff ff       	callq  400e00 <__printf_chk@plt>
  4012fb:	48 8b 3b             	mov    (%rbx),%rdi
  4012fe:	e8 a3 fc ff ff       	callq  400fa6 <usage>
  401303:	48 89 ea             	mov    %rbp,%rdx
  401306:	48 89 de             	mov    %rbx,%rsi
  401309:	44 89 e7             	mov    %r12d,%edi
  40130c:	e8 0f fb ff ff       	callq  400e20 <getopt@plt>
  401311:	89 c2                	mov    %eax,%edx
  401313:	3c ff                	cmp    $0xff,%al
  401315:	0f 85 22 ff ff ff    	jne    40123d <main+0x88>
  40131b:	be 00 00 00 00       	mov    $0x0,%esi
  401320:	44 89 ef             	mov    %r13d,%edi
  401323:	e8 08 fd ff ff       	callq  401030 <initialize_target>
  401328:	83 3d f9 31 20 00 00 	cmpl   $0x0,0x2031f9(%rip)        # 604528 <is_checker>
  40132f:	74 2a                	je     40135b <main+0x1a6>
  401331:	44 3b 35 e8 31 20 00 	cmp    0x2031e8(%rip),%r14d        # 604520 <authkey>
  401338:	74 21                	je     40135b <main+0x1a6>
  40133a:	44 89 f2             	mov    %r14d,%edx
  40133d:	be 88 2f 40 00       	mov    $0x402f88,%esi
  401342:	bf 01 00 00 00       	mov    $0x1,%edi
  401347:	b8 00 00 00 00       	mov    $0x0,%eax
  40134c:	e8 af fa ff ff       	callq  400e00 <__printf_chk@plt>
  401351:	b8 00 00 00 00       	mov    $0x0,%eax
  401356:	e8 ed 06 00 00       	callq  401a48 <check_fail>
  40135b:	8b 15 c3 31 20 00    	mov    0x2031c3(%rip),%edx        # 604524 <cookie>
  401361:	be 62 30 40 00       	mov    $0x403062,%esi
  401366:	bf 01 00 00 00       	mov    $0x1,%edi
  40136b:	b8 00 00 00 00       	mov    $0x0,%eax
  401370:	e8 8b fa ff ff       	callq  400e00 <__printf_chk@plt>
  401375:	48 8b 3d 24 31 20 00 	mov    0x203124(%rip),%rdi        # 6044a0 <buf_offset>
  40137c:	e8 15 0c 00 00       	callq  401f96 <stable_launch>
  401381:	b8 00 00 00 00       	mov    $0x0,%eax
  401386:	5b                   	pop    %rbx
  401387:	5d                   	pop    %rbp
  401388:	41 5c                	pop    %r12
  40138a:	41 5d                	pop    %r13
  40138c:	41 5e                	pop    %r14
  40138e:	c3                   	retq   

000000000040138f <scramble>:
  40138f:	48 83 ec 38          	sub    $0x38,%rsp
  401393:	64 48 8b 04 25 28 00 	mov    %fs:0x28,%rax
  40139a:	00 00 
  40139c:	48 89 44 24 28       	mov    %rax,0x28(%rsp)
  4013a1:	31 c0                	xor    %eax,%eax
  4013a3:	eb 10                	jmp    4013b5 <scramble+0x26>
  4013a5:	69 d0 eb 30 00 00    	imul   $0x30eb,%eax,%edx
  4013ab:	01 fa                	add    %edi,%edx
  4013ad:	89 c1                	mov    %eax,%ecx
  4013af:	89 14 8c             	mov    %edx,(%rsp,%rcx,4)
  4013b2:	83 c0 01             	add    $0x1,%eax
  4013b5:	83 f8 09             	cmp    $0x9,%eax
  4013b8:	76 eb                	jbe    4013a5 <scramble+0x16>
  4013ba:	8b 44 24 24          	mov    0x24(%rsp),%eax
  4013be:	69 c0 f0 4d 00 00    	imul   $0x4df0,%eax,%eax
  4013c4:	89 44 24 24          	mov    %eax,0x24(%rsp)
  4013c8:	8b 44 24 04          	mov    0x4(%rsp),%eax
  4013cc:	69 c0 dd 37 00 00    	imul   $0x37dd,%eax,%eax
  4013d2:	89 44 24 04          	mov    %eax,0x4(%rsp)
  4013d6:	8b 44 24 0c          	mov    0xc(%rsp),%eax
  4013da:	69 c0 c6 b3 00 00    	imul   $0xb3c6,%eax,%eax
  4013e0:	89 44 24 0c          	mov    %eax,0xc(%rsp)
  4013e4:	8b 44 24 14          	mov    0x14(%rsp),%eax
  4013e8:	69 c0 87 4d 00 00    	imul   $0x4d87,%eax,%eax
  4013ee:	89 44 24 14          	mov    %eax,0x14(%rsp)
  4013f2:	8b 04 24             	mov    (%rsp),%eax
  4013f5:	69 c0 80 95 00 00    	imul   $0x9580,%eax,%eax
  4013fb:	89 04 24             	mov    %eax,(%rsp)
  4013fe:	8b 44 24 18          	mov    0x18(%rsp),%eax
  401402:	69 c0 20 3b 00 00    	imul   $0x3b20,%eax,%eax
  401408:	89 44 24 18          	mov    %eax,0x18(%rsp)
  40140c:	8b 44 24 08          	mov    0x8(%rsp),%eax
  401410:	69 c0 d8 88 00 00    	imul   $0x88d8,%eax,%eax
  401416:	89 44 24 08          	mov    %eax,0x8(%rsp)
  40141a:	8b 44 24 20          	mov    0x20(%rsp),%eax
  40141e:	69 c0 25 13 00 00    	imul   $0x1325,%eax,%eax
  401424:	89 44 24 20          	mov    %eax,0x20(%rsp)
  401428:	8b 44 24 20          	mov    0x20(%rsp),%eax
  40142c:	69 c0 e3 30 00 00    	imul   $0x30e3,%eax,%eax
  401432:	89 44 24 20          	mov    %eax,0x20(%rsp)
  401436:	8b 44 24 10          	mov    0x10(%rsp),%eax
  40143a:	69 c0 78 2b 00 00    	imul   $0x2b78,%eax,%eax
  401440:	89 44 24 10          	mov    %eax,0x10(%rsp)
  401444:	8b 44 24 0c          	mov    0xc(%rsp),%eax
  401448:	69 c0 8a bd 00 00    	imul   $0xbd8a,%eax,%eax
  40144e:	89 44 24 0c          	mov    %eax,0xc(%rsp)
  401452:	8b 44 24 20          	mov    0x20(%rsp),%eax
  401456:	69 c0 4c 3b 00 00    	imul   $0x3b4c,%eax,%eax
  40145c:	89 44 24 20          	mov    %eax,0x20(%rsp)
  401460:	8b 44 24 1c          	mov    0x1c(%rsp),%eax
  401464:	69 c0 86 ff 00 00    	imul   $0xff86,%eax,%eax
  40146a:	89 44 24 1c          	mov    %eax,0x1c(%rsp)
  40146e:	8b 44 24 1c          	mov    0x1c(%rsp),%eax
  401472:	69 c0 ff 7a 00 00    	imul   $0x7aff,%eax,%eax
  401478:	89 44 24 1c          	mov    %eax,0x1c(%rsp)
  40147c:	8b 44 24 0c          	mov    0xc(%rsp),%eax
  401480:	69 c0 2c 3c 00 00    	imul   $0x3c2c,%eax,%eax
  401486:	89 44 24 0c          	mov    %eax,0xc(%rsp)
  40148a:	8b 44 24 10          	mov    0x10(%rsp),%eax
  40148e:	69 c0 f6 02 00 00    	imul   $0x2f6,%eax,%eax
  401494:	89 44 24 10          	mov    %eax,0x10(%rsp)
  401498:	8b 44 24 0c          	mov    0xc(%rsp),%eax
  40149c:	69 c0 c6 e0 00 00    	imul   $0xe0c6,%eax,%eax
  4014a2:	89 44 24 0c          	mov    %eax,0xc(%rsp)
  4014a6:	8b 44 24 20          	mov    0x20(%rsp),%eax
  4014aa:	69 c0 bd 3e 00 00    	imul   $0x3ebd,%eax,%eax
  4014b0:	89 44 24 20          	mov    %eax,0x20(%rsp)
  4014b4:	8b 44 24 08          	mov    0x8(%rsp),%eax
  4014b8:	69 c0 e2 66 00 00    	imul   $0x66e2,%eax,%eax
  4014be:	89 44 24 08          	mov    %eax,0x8(%rsp)
  4014c2:	8b 44 24 08          	mov    0x8(%rsp),%eax
  4014c6:	69 c0 6d 22 00 00    	imul   $0x226d,%eax,%eax
  4014cc:	89 44 24 08          	mov    %eax,0x8(%rsp)
  4014d0:	8b 44 24 10          	mov    0x10(%rsp),%eax
  4014d4:	69 c0 2c 47 00 00    	imul   $0x472c,%eax,%eax
  4014da:	89 44 24 10          	mov    %eax,0x10(%rsp)
  4014de:	8b 44 24 1c          	mov    0x1c(%rsp),%eax
  4014e2:	69 c0 6f 69 00 00    	imul   $0x696f,%eax,%eax
  4014e8:	89 44 24 1c          	mov    %eax,0x1c(%rsp)
  4014ec:	8b 44 24 18          	mov    0x18(%rsp),%eax
  4014f0:	69 c0 64 71 00 00    	imul   $0x7164,%eax,%eax
  4014f6:	89 44 24 18          	mov    %eax,0x18(%rsp)
  4014fa:	8b 44 24 10          	mov    0x10(%rsp),%eax
  4014fe:	69 c0 23 33 00 00    	imul   $0x3323,%eax,%eax
  401504:	89 44 24 10          	mov    %eax,0x10(%rsp)
  401508:	8b 44 24 0c          	mov    0xc(%rsp),%eax
  40150c:	69 c0 d7 98 00 00    	imul   $0x98d7,%eax,%eax
  401512:	89 44 24 0c          	mov    %eax,0xc(%rsp)
  401516:	8b 44 24 14          	mov    0x14(%rsp),%eax
  40151a:	69 c0 64 16 00 00    	imul   $0x1664,%eax,%eax
  401520:	89 44 24 14          	mov    %eax,0x14(%rsp)
  401524:	8b 44 24 10          	mov    0x10(%rsp),%eax
  401528:	69 c0 d7 ca 00 00    	imul   $0xcad7,%eax,%eax
  40152e:	89 44 24 10          	mov    %eax,0x10(%rsp)
  401532:	8b 44 24 1c          	mov    0x1c(%rsp),%eax
  401536:	69 c0 4a 81 00 00    	imul   $0x814a,%eax,%eax
  40153c:	89 44 24 1c          	mov    %eax,0x1c(%rsp)
  401540:	8b 44 24 1c          	mov    0x1c(%rsp),%eax
  401544:	69 c0 da 5f 00 00    	imul   $0x5fda,%eax,%eax
  40154a:	89 44 24 1c          	mov    %eax,0x1c(%rsp)
  40154e:	8b 44 24 08          	mov    0x8(%rsp),%eax
  401552:	69 c0 68 9c 00 00    	imul   $0x9c68,%eax,%eax
  401558:	89 44 24 08          	mov    %eax,0x8(%rsp)
  40155c:	8b 44 24 10          	mov    0x10(%rsp),%eax
  401560:	69 c0 92 af 00 00    	imul   $0xaf92,%eax,%eax
  401566:	89 44 24 10          	mov    %eax,0x10(%rsp)
  40156a:	8b 44 24 18          	mov    0x18(%rsp),%eax
  40156e:	69 c0 22 26 00 00    	imul   $0x2622,%eax,%eax
  401574:	89 44 24 18          	mov    %eax,0x18(%rsp)
  401578:	8b 44 24 14          	mov    0x14(%rsp),%eax
  40157c:	69 c0 31 da 00 00    	imul   $0xda31,%eax,%eax
  401582:	89 44 24 14          	mov    %eax,0x14(%rsp)
  401586:	8b 44 24 18          	mov    0x18(%rsp),%eax
  40158a:	69 c0 e4 24 00 00    	imul   $0x24e4,%eax,%eax
  401590:	89 44 24 18          	mov    %eax,0x18(%rsp)
  401594:	8b 04 24             	mov    (%rsp),%eax
  401597:	69 c0 23 f1 00 00    	imul   $0xf123,%eax,%eax
  40159d:	89 04 24             	mov    %eax,(%rsp)
  4015a0:	8b 44 24 08          	mov    0x8(%rsp),%eax
  4015a4:	69 c0 76 3d 00 00    	imul   $0x3d76,%eax,%eax
  4015aa:	89 44 24 08          	mov    %eax,0x8(%rsp)
  4015ae:	8b 44 24 04          	mov    0x4(%rsp),%eax
  4015b2:	69 c0 e0 a4 00 00    	imul   $0xa4e0,%eax,%eax
  4015b8:	89 44 24 04          	mov    %eax,0x4(%rsp)
  4015bc:	8b 44 24 08          	mov    0x8(%rsp),%eax
  4015c0:	69 c0 55 08 00 00    	imul   $0x855,%eax,%eax
  4015c6:	89 44 24 08          	mov    %eax,0x8(%rsp)
  4015ca:	8b 44 24 18          	mov    0x18(%rsp),%eax
  4015ce:	69 c0 7a 23 00 00    	imul   $0x237a,%eax,%eax
  4015d4:	89 44 24 18          	mov    %eax,0x18(%rsp)
  4015d8:	8b 44 24 0c          	mov    0xc(%rsp),%eax
  4015dc:	69 c0 8c b8 00 00    	imul   $0xb88c,%eax,%eax
  4015e2:	89 44 24 0c          	mov    %eax,0xc(%rsp)
  4015e6:	8b 44 24 24          	mov    0x24(%rsp),%eax
  4015ea:	69 c0 13 9a 00 00    	imul   $0x9a13,%eax,%eax
  4015f0:	89 44 24 24          	mov    %eax,0x24(%rsp)
  4015f4:	8b 44 24 20          	mov    0x20(%rsp),%eax
  4015f8:	69 c0 b2 12 00 00    	imul   $0x12b2,%eax,%eax
  4015fe:	89 44 24 20          	mov    %eax,0x20(%rsp)
  401602:	8b 44 24 18          	mov    0x18(%rsp),%eax
  401606:	69 c0 a1 20 00 00    	imul   $0x20a1,%eax,%eax
  40160c:	89 44 24 18          	mov    %eax,0x18(%rsp)
  401610:	8b 44 24 1c          	mov    0x1c(%rsp),%eax
  401614:	69 c0 47 2f 00 00    	imul   $0x2f47,%eax,%eax
  40161a:	89 44 24 1c          	mov    %eax,0x1c(%rsp)
  40161e:	8b 44 24 14          	mov    0x14(%rsp),%eax
  401622:	69 c0 46 90 00 00    	imul   $0x9046,%eax,%eax
  401628:	89 44 24 14          	mov    %eax,0x14(%rsp)
  40162c:	8b 44 24 20          	mov    0x20(%rsp),%eax
  401630:	69 c0 81 1c 00 00    	imul   $0x1c81,%eax,%eax
  401636:	89 44 24 20          	mov    %eax,0x20(%rsp)
  40163a:	8b 44 24 1c          	mov    0x1c(%rsp),%eax
  40163e:	69 c0 0d 6b 00 00    	imul   $0x6b0d,%eax,%eax
  401644:	89 44 24 1c          	mov    %eax,0x1c(%rsp)
  401648:	8b 44 24 04          	mov    0x4(%rsp),%eax
  40164c:	69 c0 31 d0 00 00    	imul   $0xd031,%eax,%eax
  401652:	89 44 24 04          	mov    %eax,0x4(%rsp)
  401656:	8b 44 24 04          	mov    0x4(%rsp),%eax
  40165a:	69 c0 82 a7 00 00    	imul   $0xa782,%eax,%eax
  401660:	89 44 24 04          	mov    %eax,0x4(%rsp)
  401664:	8b 44 24 08          	mov    0x8(%rsp),%eax
  401668:	69 c0 53 86 00 00    	imul   $0x8653,%eax,%eax
  40166e:	89 44 24 08          	mov    %eax,0x8(%rsp)
  401672:	8b 44 24 1c          	mov    0x1c(%rsp),%eax
  401676:	69 c0 67 3c 00 00    	imul   $0x3c67,%eax,%eax
  40167c:	89 44 24 1c          	mov    %eax,0x1c(%rsp)
  401680:	8b 44 24 1c          	mov    0x1c(%rsp),%eax
  401684:	69 c0 f6 d0 00 00    	imul   $0xd0f6,%eax,%eax
  40168a:	89 44 24 1c          	mov    %eax,0x1c(%rsp)
  40168e:	8b 44 24 1c          	mov    0x1c(%rsp),%eax
  401692:	69 c0 af 6a 00 00    	imul   $0x6aaf,%eax,%eax
  401698:	89 44 24 1c          	mov    %eax,0x1c(%rsp)
  40169c:	8b 44 24 1c          	mov    0x1c(%rsp),%eax
  4016a0:	69 c0 8c f7 00 00    	imul   $0xf78c,%eax,%eax
  4016a6:	89 44 24 1c          	mov    %eax,0x1c(%rsp)
  4016aa:	8b 04 24             	mov    (%rsp),%eax
  4016ad:	69 c0 c3 14 00 00    	imul   $0x14c3,%eax,%eax
  4016b3:	89 04 24             	mov    %eax,(%rsp)
  4016b6:	8b 44 24 10          	mov    0x10(%rsp),%eax
  4016ba:	69 c0 7a 4a 00 00    	imul   $0x4a7a,%eax,%eax
  4016c0:	89 44 24 10          	mov    %eax,0x10(%rsp)
  4016c4:	8b 44 24 08          	mov    0x8(%rsp),%eax
  4016c8:	69 c0 09 7f 00 00    	imul   $0x7f09,%eax,%eax
  4016ce:	89 44 24 08          	mov    %eax,0x8(%rsp)
  4016d2:	8b 44 24 14          	mov    0x14(%rsp),%eax
  4016d6:	69 c0 c1 13 00 00    	imul   $0x13c1,%eax,%eax
  4016dc:	89 44 24 14          	mov    %eax,0x14(%rsp)
  4016e0:	8b 44 24 08          	mov    0x8(%rsp),%eax
  4016e4:	69 c0 29 f1 00 00    	imul   $0xf129,%eax,%eax
  4016ea:	89 44 24 08          	mov    %eax,0x8(%rsp)
  4016ee:	8b 44 24 1c          	mov    0x1c(%rsp),%eax
  4016f2:	69 c0 26 20 00 00    	imul   $0x2026,%eax,%eax
  4016f8:	89 44 24 1c          	mov    %eax,0x1c(%rsp)
  4016fc:	8b 44 24 08          	mov    0x8(%rsp),%eax
  401700:	69 c0 b8 0e 00 00    	imul   $0xeb8,%eax,%eax
  401706:	89 44 24 08          	mov    %eax,0x8(%rsp)
  40170a:	8b 44 24 04          	mov    0x4(%rsp),%eax
  40170e:	69 c0 47 c1 00 00    	imul   $0xc147,%eax,%eax
  401714:	89 44 24 04          	mov    %eax,0x4(%rsp)
  401718:	8b 44 24 08          	mov    0x8(%rsp),%eax
  40171c:	69 c0 4b 7f 00 00    	imul   $0x7f4b,%eax,%eax
  401722:	89 44 24 08          	mov    %eax,0x8(%rsp)
  401726:	8b 44 24 20          	mov    0x20(%rsp),%eax
  40172a:	69 c0 04 bf 00 00    	imul   $0xbf04,%eax,%eax
  401730:	89 44 24 20          	mov    %eax,0x20(%rsp)
  401734:	8b 44 24 24          	mov    0x24(%rsp),%eax
  401738:	69 c0 8e 86 00 00    	imul   $0x868e,%eax,%eax
  40173e:	89 44 24 24          	mov    %eax,0x24(%rsp)
  401742:	8b 44 24 1c          	mov    0x1c(%rsp),%eax
  401746:	69 c0 74 bf 00 00    	imul   $0xbf74,%eax,%eax
  40174c:	89 44 24 1c          	mov    %eax,0x1c(%rsp)
  401750:	8b 44 24 20          	mov    0x20(%rsp),%eax
  401754:	69 c0 21 09 00 00    	imul   $0x921,%eax,%eax
  40175a:	89 44 24 20          	mov    %eax,0x20(%rsp)
  40175e:	8b 44 24 20          	mov    0x20(%rsp),%eax
  401762:	69 c0 3d a4 00 00    	imul   $0xa43d,%eax,%eax
  401768:	89 44 24 20          	mov    %eax,0x20(%rsp)
  40176c:	8b 44 24 1c          	mov    0x1c(%rsp),%eax
  401770:	69 c0 b5 69 00 00    	imul   $0x69b5,%eax,%eax
  401776:	89 44 24 1c          	mov    %eax,0x1c(%rsp)
  40177a:	8b 04 24             	mov    (%rsp),%eax
  40177d:	69 c0 f9 01 00 00    	imul   $0x1f9,%eax,%eax
  401783:	89 04 24             	mov    %eax,(%rsp)
  401786:	8b 44 24 24          	mov    0x24(%rsp),%eax
  40178a:	69 c0 e1 4b 00 00    	imul   $0x4be1,%eax,%eax
  401790:	89 44 24 24          	mov    %eax,0x24(%rsp)
  401794:	8b 44 24 1c          	mov    0x1c(%rsp),%eax
  401798:	69 c0 4e 2d 00 00    	imul   $0x2d4e,%eax,%eax
  40179e:	89 44 24 1c          	mov    %eax,0x1c(%rsp)
  4017a2:	8b 44 24 1c          	mov    0x1c(%rsp),%eax
  4017a6:	69 c0 9f a9 00 00    	imul   $0xa99f,%eax,%eax
  4017ac:	89 44 24 1c          	mov    %eax,0x1c(%rsp)
  4017b0:	8b 44 24 10          	mov    0x10(%rsp),%eax
  4017b4:	69 c0 96 6a 00 00    	imul   $0x6a96,%eax,%eax
  4017ba:	89 44 24 10          	mov    %eax,0x10(%rsp)
  4017be:	ba 00 00 00 00       	mov    $0x0,%edx
  4017c3:	b8 00 00 00 00       	mov    $0x0,%eax
  4017c8:	eb 0a                	jmp    4017d4 <scramble+0x445>
  4017ca:	89 d1                	mov    %edx,%ecx
  4017cc:	8b 0c 8c             	mov    (%rsp,%rcx,4),%ecx
  4017cf:	01 c8                	add    %ecx,%eax
  4017d1:	83 c2 01             	add    $0x1,%edx
  4017d4:	83 fa 09             	cmp    $0x9,%edx
  4017d7:	76 f1                	jbe    4017ca <scramble+0x43b>
  4017d9:	48 8b 74 24 28       	mov    0x28(%rsp),%rsi
  4017de:	64 48 33 34 25 28 00 	xor    %fs:0x28,%rsi
  4017e5:	00 00 
  4017e7:	74 05                	je     4017ee <scramble+0x45f>
  4017e9:	e8 02 f5 ff ff       	callq  400cf0 <__stack_chk_fail@plt>
  4017ee:	48 83 c4 38          	add    $0x38,%rsp
  4017f2:	c3                   	retq   

00000000004017f3 <getbuf>:
  4017f3:	48 83 ec 38          	sub    $0x38,%rsp
  4017f7:	48 89 e7             	mov    %rsp,%rdi
  4017fa:	e8 7e 02 00 00       	callq  401a7d <Gets>
  4017ff:	b8 01 00 00 00       	mov    $0x1,%eax
  401804:	48 83 c4 38          	add    $0x38,%rsp
  401808:	c3                   	retq   

0000000000401809 <touch1>:
  401809:	48 83 ec 08          	sub    $0x8,%rsp
  40180d:	c7 05 05 2d 20 00 01 	movl   $0x1,0x202d05(%rip)        # 60451c <vlevel>
  401814:	00 00 00 
  401817:	bf 56 31 40 00       	mov    $0x403156,%edi
  40181c:	e8 af f4 ff ff       	callq  400cd0 <puts@plt>
  401821:	bf 01 00 00 00       	mov    $0x1,%edi
  401826:	e8 97 04 00 00       	callq  401cc2 <validate>
  40182b:	bf 00 00 00 00       	mov    $0x0,%edi
  401830:	e8 1b f6 ff ff       	callq  400e50 <exit@plt>

0000000000401835 <touch2>:
  401835:	48 83 ec 08          	sub    $0x8,%rsp
  401839:	89 fa                	mov    %edi,%edx
  40183b:	c7 05 d7 2c 20 00 02 	movl   $0x2,0x202cd7(%rip)        # 60451c <vlevel>
  401842:	00 00 00 
  401845:	39 3d d9 2c 20 00    	cmp    %edi,0x202cd9(%rip)        # 604524 <cookie>
  40184b:	75 20                	jne    40186d <touch2+0x38>
  40184d:	be 78 31 40 00       	mov    $0x403178,%esi
  401852:	bf 01 00 00 00       	mov    $0x1,%edi
  401857:	b8 00 00 00 00       	mov    $0x0,%eax
  40185c:	e8 9f f5 ff ff       	callq  400e00 <__printf_chk@plt>
  401861:	bf 02 00 00 00       	mov    $0x2,%edi
  401866:	e8 57 04 00 00       	callq  401cc2 <validate>
  40186b:	eb 1e                	jmp    40188b <touch2+0x56>
  40186d:	be a0 31 40 00       	mov    $0x4031a0,%esi
  401872:	bf 01 00 00 00       	mov    $0x1,%edi
  401877:	b8 00 00 00 00       	mov    $0x0,%eax
  40187c:	e8 7f f5 ff ff       	callq  400e00 <__printf_chk@plt>
  401881:	bf 02 00 00 00       	mov    $0x2,%edi
  401886:	e8 f9 04 00 00       	callq  401d84 <fail>
  40188b:	bf 00 00 00 00       	mov    $0x0,%edi
  401890:	e8 bb f5 ff ff       	callq  400e50 <exit@plt>

0000000000401895 <hexmatch>:
  401895:	41 54                	push   %r12
  401897:	55                   	push   %rbp
  401898:	53                   	push   %rbx
  401899:	48 83 c4 80          	add    $0xffffffffffffff80,%rsp
  40189d:	89 fd                	mov    %edi,%ebp
  40189f:	48 89 f3             	mov    %rsi,%rbx
  4018a2:	64 48 8b 04 25 28 00 	mov    %fs:0x28,%rax
  4018a9:	00 00 
  4018ab:	48 89 44 24 78       	mov    %rax,0x78(%rsp)
  4018b0:	31 c0                	xor    %eax,%eax
  4018b2:	e8 09 f5 ff ff       	callq  400dc0 <random@plt>
  4018b7:	48 89 c1             	mov    %rax,%rcx
  4018ba:	48 ba 0b d7 a3 70 3d 	movabs $0xa3d70a3d70a3d70b,%rdx
  4018c1:	0a d7 a3 
  4018c4:	48 f7 ea             	imul   %rdx
  4018c7:	48 01 ca             	add    %rcx,%rdx
  4018ca:	48 c1 fa 06          	sar    $0x6,%rdx
  4018ce:	48 89 c8             	mov    %rcx,%rax
  4018d1:	48 c1 f8 3f          	sar    $0x3f,%rax
  4018d5:	48 29 c2             	sub    %rax,%rdx
  4018d8:	48 8d 04 92          	lea    (%rdx,%rdx,4),%rax
  4018dc:	48 8d 14 80          	lea    (%rax,%rax,4),%rdx
  4018e0:	48 8d 04 95 00 00 00 	lea    0x0(,%rdx,4),%rax
  4018e7:	00 
  4018e8:	48 29 c1             	sub    %rax,%rcx
  4018eb:	4c 8d 24 0c          	lea    (%rsp,%rcx,1),%r12
  4018ef:	41 89 e8             	mov    %ebp,%r8d
  4018f2:	b9 73 31 40 00       	mov    $0x403173,%ecx
  4018f7:	48 c7 c2 ff ff ff ff 	mov    $0xffffffffffffffff,%rdx
  4018fe:	be 01 00 00 00       	mov    $0x1,%esi
  401903:	4c 89 e7             	mov    %r12,%rdi
  401906:	b8 00 00 00 00       	mov    $0x0,%eax
  40190b:	e8 70 f5 ff ff       	callq  400e80 <__sprintf_chk@plt>
  401910:	ba 09 00 00 00       	mov    $0x9,%edx
  401915:	4c 89 e6             	mov    %r12,%rsi
  401918:	48 89 df             	mov    %rbx,%rdi
  40191b:	e8 90 f3 ff ff       	callq  400cb0 <strncmp@plt>
  401920:	85 c0                	test   %eax,%eax
  401922:	0f 94 c0             	sete   %al
  401925:	48 8b 5c 24 78       	mov    0x78(%rsp),%rbx
  40192a:	64 48 33 1c 25 28 00 	xor    %fs:0x28,%rbx
  401931:	00 00 
  401933:	74 05                	je     40193a <hexmatch+0xa5>
  401935:	e8 b6 f3 ff ff       	callq  400cf0 <__stack_chk_fail@plt>
  40193a:	0f b6 c0             	movzbl %al,%eax
  40193d:	48 83 ec 80          	sub    $0xffffffffffffff80,%rsp
  401941:	5b                   	pop    %rbx
  401942:	5d                   	pop    %rbp
  401943:	41 5c                	pop    %r12
  401945:	c3                   	retq   

0000000000401946 <touch3>:
  401946:	53                   	push   %rbx
  401947:	48 89 fb             	mov    %rdi,%rbx
  40194a:	c7 05 c8 2b 20 00 03 	movl   $0x3,0x202bc8(%rip)        # 60451c <vlevel>
  401951:	00 00 00 
  401954:	48 89 fe             	mov    %rdi,%rsi
  401957:	8b 3d c7 2b 20 00    	mov    0x202bc7(%rip),%edi        # 604524 <cookie>
  40195d:	e8 33 ff ff ff       	callq  401895 <hexmatch>
  401962:	85 c0                	test   %eax,%eax
  401964:	74 23                	je     401989 <touch3+0x43>
  401966:	48 89 da             	mov    %rbx,%rdx
  401969:	be c8 31 40 00       	mov    $0x4031c8,%esi
  40196e:	bf 01 00 00 00       	mov    $0x1,%edi
  401973:	b8 00 00 00 00       	mov    $0x0,%eax
  401978:	e8 83 f4 ff ff       	callq  400e00 <__printf_chk@plt>
  40197d:	bf 03 00 00 00       	mov    $0x3,%edi
  401982:	e8 3b 03 00 00       	callq  401cc2 <validate>
  401987:	eb 21                	jmp    4019aa <touch3+0x64>
  401989:	48 89 da             	mov    %rbx,%rdx
  40198c:	be f0 31 40 00       	mov    $0x4031f0,%esi
  401991:	bf 01 00 00 00       	mov    $0x1,%edi
  401996:	b8 00 00 00 00       	mov    $0x0,%eax
  40199b:	e8 60 f4 ff ff       	callq  400e00 <__printf_chk@plt>
  4019a0:	bf 03 00 00 00       	mov    $0x3,%edi
  4019a5:	e8 da 03 00 00       	callq  401d84 <fail>
  4019aa:	bf 00 00 00 00       	mov    $0x0,%edi
  4019af:	e8 9c f4 ff ff       	callq  400e50 <exit@plt>

00000000004019b4 <test>:
  4019b4:	48 83 ec 08          	sub    $0x8,%rsp
  4019b8:	b8 00 00 00 00       	mov    $0x0,%eax
  4019bd:	e8 31 fe ff ff       	callq  4017f3 <getbuf>
  4019c2:	89 c2                	mov    %eax,%edx
  4019c4:	be 18 32 40 00       	mov    $0x403218,%esi
  4019c9:	bf 01 00 00 00       	mov    $0x1,%edi
  4019ce:	b8 00 00 00 00       	mov    $0x0,%eax
  4019d3:	e8 28 f4 ff ff       	callq  400e00 <__printf_chk@plt>
  4019d8:	48 83 c4 08          	add    $0x8,%rsp
  4019dc:	c3                   	retq   

00000000004019dd <save_char>:
  4019dd:	8b 05 61 37 20 00    	mov    0x203761(%rip),%eax        # 605144 <gets_cnt>
  4019e3:	3d ff 03 00 00       	cmp    $0x3ff,%eax
  4019e8:	7f 49                	jg     401a33 <save_char+0x56>
  4019ea:	8d 14 40             	lea    (%rax,%rax,2),%edx
  4019ed:	89 f9                	mov    %edi,%ecx
  4019ef:	c0 e9 04             	shr    $0x4,%cl
  4019f2:	83 e1 0f             	and    $0xf,%ecx
  4019f5:	0f b6 b1 40 35 40 00 	movzbl 0x403540(%rcx),%esi
  4019fc:	48 63 ca             	movslq %edx,%rcx
  4019ff:	40 88 b1 40 45 60 00 	mov    %sil,0x604540(%rcx)
  401a06:	8d 4a 01             	lea    0x1(%rdx),%ecx
  401a09:	83 e7 0f             	and    $0xf,%edi
  401a0c:	0f b6 b7 40 35 40 00 	movzbl 0x403540(%rdi),%esi
  401a13:	48 63 c9             	movslq %ecx,%rcx
  401a16:	40 88 b1 40 45 60 00 	mov    %sil,0x604540(%rcx)
  401a1d:	83 c2 02             	add    $0x2,%edx
  401a20:	48 63 d2             	movslq %edx,%rdx
  401a23:	c6 82 40 45 60 00 20 	movb   $0x20,0x604540(%rdx)
  401a2a:	83 c0 01             	add    $0x1,%eax
  401a2d:	89 05 11 37 20 00    	mov    %eax,0x203711(%rip)        # 605144 <gets_cnt>
  401a33:	f3 c3                	repz retq 

0000000000401a35 <save_term>:
  401a35:	8b 05 09 37 20 00    	mov    0x203709(%rip),%eax        # 605144 <gets_cnt>
  401a3b:	8d 04 40             	lea    (%rax,%rax,2),%eax
  401a3e:	48 98                	cltq   
  401a40:	c6 80 40 45 60 00 00 	movb   $0x0,0x604540(%rax)
  401a47:	c3                   	retq   

0000000000401a48 <check_fail>:
  401a48:	48 83 ec 08          	sub    $0x8,%rsp
  401a4c:	0f be 15 f5 36 20 00 	movsbl 0x2036f5(%rip),%edx        # 605148 <target_prefix>
  401a53:	41 b8 40 45 60 00    	mov    $0x604540,%r8d
  401a59:	8b 0d b9 2a 20 00    	mov    0x202ab9(%rip),%ecx        # 604518 <check_level>
  401a5f:	be 3b 32 40 00       	mov    $0x40323b,%esi
  401a64:	bf 01 00 00 00       	mov    $0x1,%edi
  401a69:	b8 00 00 00 00       	mov    $0x0,%eax
  401a6e:	e8 8d f3 ff ff       	callq  400e00 <__printf_chk@plt>
  401a73:	bf 01 00 00 00       	mov    $0x1,%edi
  401a78:	e8 d3 f3 ff ff       	callq  400e50 <exit@plt>

0000000000401a7d <Gets>:
  401a7d:	41 54                	push   %r12
  401a7f:	55                   	push   %rbp
  401a80:	53                   	push   %rbx
  401a81:	49 89 fc             	mov    %rdi,%r12
  401a84:	c7 05 b6 36 20 00 00 	movl   $0x0,0x2036b6(%rip)        # 605144 <gets_cnt>
  401a8b:	00 00 00 
  401a8e:	48 89 fb             	mov    %rdi,%rbx
  401a91:	eb 11                	jmp    401aa4 <Gets+0x27>
  401a93:	48 8d 6b 01          	lea    0x1(%rbx),%rbp
  401a97:	88 03                	mov    %al,(%rbx)
  401a99:	0f b6 f8             	movzbl %al,%edi
  401a9c:	e8 3c ff ff ff       	callq  4019dd <save_char>
  401aa1:	48 89 eb             	mov    %rbp,%rbx
  401aa4:	48 8b 3d 65 2a 20 00 	mov    0x202a65(%rip),%rdi        # 604510 <infile>
  401aab:	e8 20 f3 ff ff       	callq  400dd0 <_IO_getc@plt>
  401ab0:	83 f8 ff             	cmp    $0xffffffff,%eax
  401ab3:	74 05                	je     401aba <Gets+0x3d>
  401ab5:	83 f8 0a             	cmp    $0xa,%eax
  401ab8:	75 d9                	jne    401a93 <Gets+0x16>
  401aba:	c6 03 00             	movb   $0x0,(%rbx)
  401abd:	b8 00 00 00 00       	mov    $0x0,%eax
  401ac2:	e8 6e ff ff ff       	callq  401a35 <save_term>
  401ac7:	4c 89 e0             	mov    %r12,%rax
  401aca:	5b                   	pop    %rbx
  401acb:	5d                   	pop    %rbp
  401acc:	41 5c                	pop    %r12
  401ace:	c3                   	retq   

0000000000401acf <notify_server>:
  401acf:	53                   	push   %rbx
  401ad0:	48 81 ec 10 40 00 00 	sub    $0x4010,%rsp
  401ad7:	64 48 8b 04 25 28 00 	mov    %fs:0x28,%rax
  401ade:	00 00 
  401ae0:	48 89 84 24 08 40 00 	mov    %rax,0x4008(%rsp)
  401ae7:	00 
  401ae8:	31 c0                	xor    %eax,%eax
  401aea:	83 3d 37 2a 20 00 00 	cmpl   $0x0,0x202a37(%rip)        # 604528 <is_checker>
  401af1:	0f 85 aa 01 00 00    	jne    401ca1 <notify_server+0x1d2>
  401af7:	89 fb                	mov    %edi,%ebx
  401af9:	8b 05 45 36 20 00    	mov    0x203645(%rip),%eax        # 605144 <gets_cnt>
  401aff:	83 c0 64             	add    $0x64,%eax
  401b02:	3d 00 20 00 00       	cmp    $0x2000,%eax
  401b07:	7e 1e                	jle    401b27 <notify_server+0x58>
  401b09:	be 70 33 40 00       	mov    $0x403370,%esi
  401b0e:	bf 01 00 00 00       	mov    $0x1,%edi
  401b13:	b8 00 00 00 00       	mov    $0x0,%eax
  401b18:	e8 e3 f2 ff ff       	callq  400e00 <__printf_chk@plt>
  401b1d:	bf 01 00 00 00       	mov    $0x1,%edi
  401b22:	e8 29 f3 ff ff       	callq  400e50 <exit@plt>
  401b27:	0f be 05 1a 36 20 00 	movsbl 0x20361a(%rip),%eax        # 605148 <target_prefix>
  401b2e:	83 3d 73 29 20 00 00 	cmpl   $0x0,0x202973(%rip)        # 6044a8 <notify>
  401b35:	74 08                	je     401b3f <notify_server+0x70>
  401b37:	8b 15 e3 29 20 00    	mov    0x2029e3(%rip),%edx        # 604520 <authkey>
  401b3d:	eb 05                	jmp    401b44 <notify_server+0x75>
  401b3f:	ba ff ff ff ff       	mov    $0xffffffff,%edx
  401b44:	85 db                	test   %ebx,%ebx
  401b46:	74 08                	je     401b50 <notify_server+0x81>
  401b48:	41 b9 51 32 40 00    	mov    $0x403251,%r9d
  401b4e:	eb 06                	jmp    401b56 <notify_server+0x87>
  401b50:	41 b9 56 32 40 00    	mov    $0x403256,%r9d
  401b56:	68 40 45 60 00       	pushq  $0x604540
  401b5b:	56                   	push   %rsi
  401b5c:	50                   	push   %rax
  401b5d:	52                   	push   %rdx
  401b5e:	44 8b 05 03 26 20 00 	mov    0x202603(%rip),%r8d        # 604168 <target_id>
  401b65:	b9 5b 32 40 00       	mov    $0x40325b,%ecx
  401b6a:	ba 00 20 00 00       	mov    $0x2000,%edx
  401b6f:	be 01 00 00 00       	mov    $0x1,%esi
  401b74:	48 8d 7c 24 20       	lea    0x20(%rsp),%rdi
  401b79:	b8 00 00 00 00       	mov    $0x0,%eax
  401b7e:	e8 fd f2 ff ff       	callq  400e80 <__sprintf_chk@plt>
  401b83:	48 83 c4 20          	add    $0x20,%rsp
  401b87:	83 3d 1a 29 20 00 00 	cmpl   $0x0,0x20291a(%rip)        # 6044a8 <notify>
  401b8e:	0f 84 81 00 00 00    	je     401c15 <notify_server+0x146>
  401b94:	85 db                	test   %ebx,%ebx
  401b96:	74 6e                	je     401c06 <notify_server+0x137>
  401b98:	4c 8d 8c 24 00 20 00 	lea    0x2000(%rsp),%r9
  401b9f:	00 
  401ba0:	41 b8 00 00 00 00    	mov    $0x0,%r8d
  401ba6:	48 89 e1             	mov    %rsp,%rcx
  401ba9:	48 8b 15 c0 25 20 00 	mov    0x2025c0(%rip),%rdx        # 604170 <lab>
  401bb0:	48 8b 35 c1 25 20 00 	mov    0x2025c1(%rip),%rsi        # 604178 <course>
  401bb7:	48 8b 3d a2 25 20 00 	mov    0x2025a2(%rip),%rdi        # 604160 <user_id>
  401bbe:	e8 ef 10 00 00       	callq  402cb2 <driver_post>
  401bc3:	85 c0                	test   %eax,%eax
  401bc5:	79 26                	jns    401bed <notify_server+0x11e>
  401bc7:	48 8d 94 24 00 20 00 	lea    0x2000(%rsp),%rdx
  401bce:	00 
  401bcf:	be 77 32 40 00       	mov    $0x403277,%esi
  401bd4:	bf 01 00 00 00       	mov    $0x1,%edi
  401bd9:	b8 00 00 00 00       	mov    $0x0,%eax
  401bde:	e8 1d f2 ff ff       	callq  400e00 <__printf_chk@plt>
  401be3:	bf 01 00 00 00       	mov    $0x1,%edi
  401be8:	e8 63 f2 ff ff       	callq  400e50 <exit@plt>
  401bed:	bf a0 33 40 00       	mov    $0x4033a0,%edi
  401bf2:	e8 d9 f0 ff ff       	callq  400cd0 <puts@plt>
  401bf7:	bf 83 32 40 00       	mov    $0x403283,%edi
  401bfc:	e8 cf f0 ff ff       	callq  400cd0 <puts@plt>
  401c01:	e9 9b 00 00 00       	jmpq   401ca1 <notify_server+0x1d2>
  401c06:	bf 8d 32 40 00       	mov    $0x40328d,%edi
  401c0b:	e8 c0 f0 ff ff       	callq  400cd0 <puts@plt>
  401c10:	e9 8c 00 00 00       	jmpq   401ca1 <notify_server+0x1d2>
  401c15:	85 db                	test   %ebx,%ebx
  401c17:	74 07                	je     401c20 <notify_server+0x151>
  401c19:	ba 51 32 40 00       	mov    $0x403251,%edx
  401c1e:	eb 05                	jmp    401c25 <notify_server+0x156>
  401c20:	ba 56 32 40 00       	mov    $0x403256,%edx
  401c25:	be d8 33 40 00       	mov    $0x4033d8,%esi
  401c2a:	bf 01 00 00 00       	mov    $0x1,%edi
  401c2f:	b8 00 00 00 00       	mov    $0x0,%eax
  401c34:	e8 c7 f1 ff ff       	callq  400e00 <__printf_chk@plt>
  401c39:	48 8b 15 20 25 20 00 	mov    0x202520(%rip),%rdx        # 604160 <user_id>
  401c40:	be 94 32 40 00       	mov    $0x403294,%esi
  401c45:	bf 01 00 00 00       	mov    $0x1,%edi
  401c4a:	b8 00 00 00 00       	mov    $0x0,%eax
  401c4f:	e8 ac f1 ff ff       	callq  400e00 <__printf_chk@plt>
  401c54:	48 8b 15 1d 25 20 00 	mov    0x20251d(%rip),%rdx        # 604178 <course>
  401c5b:	be a1 32 40 00       	mov    $0x4032a1,%esi
  401c60:	bf 01 00 00 00       	mov    $0x1,%edi
  401c65:	b8 00 00 00 00       	mov    $0x0,%eax
  401c6a:	e8 91 f1 ff ff       	callq  400e00 <__printf_chk@plt>
  401c6f:	48 8b 15 fa 24 20 00 	mov    0x2024fa(%rip),%rdx        # 604170 <lab>
  401c76:	be ad 32 40 00       	mov    $0x4032ad,%esi
  401c7b:	bf 01 00 00 00       	mov    $0x1,%edi
  401c80:	b8 00 00 00 00       	mov    $0x0,%eax
  401c85:	e8 76 f1 ff ff       	callq  400e00 <__printf_chk@plt>
  401c8a:	48 89 e2             	mov    %rsp,%rdx
  401c8d:	be b6 32 40 00       	mov    $0x4032b6,%esi
  401c92:	bf 01 00 00 00       	mov    $0x1,%edi
  401c97:	b8 00 00 00 00       	mov    $0x0,%eax
  401c9c:	e8 5f f1 ff ff       	callq  400e00 <__printf_chk@plt>
  401ca1:	48 8b 84 24 08 40 00 	mov    0x4008(%rsp),%rax
  401ca8:	00 
  401ca9:	64 48 33 04 25 28 00 	xor    %fs:0x28,%rax
  401cb0:	00 00 
  401cb2:	74 05                	je     401cb9 <notify_server+0x1ea>
  401cb4:	e8 37 f0 ff ff       	callq  400cf0 <__stack_chk_fail@plt>
  401cb9:	48 81 c4 10 40 00 00 	add    $0x4010,%rsp
  401cc0:	5b                   	pop    %rbx
  401cc1:	c3                   	retq   

0000000000401cc2 <validate>:
  401cc2:	53                   	push   %rbx
  401cc3:	89 fb                	mov    %edi,%ebx
  401cc5:	83 3d 5c 28 20 00 00 	cmpl   $0x0,0x20285c(%rip)        # 604528 <is_checker>
  401ccc:	74 6b                	je     401d39 <validate+0x77>
  401cce:	39 3d 48 28 20 00    	cmp    %edi,0x202848(%rip)        # 60451c <vlevel>
  401cd4:	74 14                	je     401cea <validate+0x28>
  401cd6:	bf c2 32 40 00       	mov    $0x4032c2,%edi
  401cdb:	e8 f0 ef ff ff       	callq  400cd0 <puts@plt>
  401ce0:	b8 00 00 00 00       	mov    $0x0,%eax
  401ce5:	e8 5e fd ff ff       	callq  401a48 <check_fail>
  401cea:	8b 15 28 28 20 00    	mov    0x202828(%rip),%edx        # 604518 <check_level>
  401cf0:	39 d7                	cmp    %edx,%edi
  401cf2:	74 20                	je     401d14 <validate+0x52>
  401cf4:	89 f9                	mov    %edi,%ecx
  401cf6:	be 00 34 40 00       	mov    $0x403400,%esi
  401cfb:	bf 01 00 00 00       	mov    $0x1,%edi
  401d00:	b8 00 00 00 00       	mov    $0x0,%eax
  401d05:	e8 f6 f0 ff ff       	callq  400e00 <__printf_chk@plt>
  401d0a:	b8 00 00 00 00       	mov    $0x0,%eax
  401d0f:	e8 34 fd ff ff       	callq  401a48 <check_fail>
  401d14:	0f be 15 2d 34 20 00 	movsbl 0x20342d(%rip),%edx        # 605148 <target_prefix>
  401d1b:	41 b8 40 45 60 00    	mov    $0x604540,%r8d
  401d21:	89 f9                	mov    %edi,%ecx
  401d23:	be e0 32 40 00       	mov    $0x4032e0,%esi
  401d28:	bf 01 00 00 00       	mov    $0x1,%edi
  401d2d:	b8 00 00 00 00       	mov    $0x0,%eax
  401d32:	e8 c9 f0 ff ff       	callq  400e00 <__printf_chk@plt>
  401d37:	eb 49                	jmp    401d82 <validate+0xc0>
  401d39:	3b 3d dd 27 20 00    	cmp    0x2027dd(%rip),%edi        # 60451c <vlevel>
  401d3f:	74 18                	je     401d59 <validate+0x97>
  401d41:	bf c2 32 40 00       	mov    $0x4032c2,%edi
  401d46:	e8 85 ef ff ff       	callq  400cd0 <puts@plt>
  401d4b:	89 de                	mov    %ebx,%esi
  401d4d:	bf 00 00 00 00       	mov    $0x0,%edi
  401d52:	e8 78 fd ff ff       	callq  401acf <notify_server>
  401d57:	eb 29                	jmp    401d82 <validate+0xc0>
  401d59:	0f be 0d e8 33 20 00 	movsbl 0x2033e8(%rip),%ecx        # 605148 <target_prefix>
  401d60:	89 fa                	mov    %edi,%edx
  401d62:	be 28 34 40 00       	mov    $0x403428,%esi
  401d67:	bf 01 00 00 00       	mov    $0x1,%edi
  401d6c:	b8 00 00 00 00       	mov    $0x0,%eax
  401d71:	e8 8a f0 ff ff       	callq  400e00 <__printf_chk@plt>
  401d76:	89 de                	mov    %ebx,%esi
  401d78:	bf 01 00 00 00       	mov    $0x1,%edi
  401d7d:	e8 4d fd ff ff       	callq  401acf <notify_server>
  401d82:	5b                   	pop    %rbx
  401d83:	c3                   	retq   

0000000000401d84 <fail>:
  401d84:	48 83 ec 08          	sub    $0x8,%rsp
  401d88:	83 3d 99 27 20 00 00 	cmpl   $0x0,0x202799(%rip)        # 604528 <is_checker>
  401d8f:	74 0a                	je     401d9b <fail+0x17>
  401d91:	b8 00 00 00 00       	mov    $0x0,%eax
  401d96:	e8 ad fc ff ff       	callq  401a48 <check_fail>
  401d9b:	89 fe                	mov    %edi,%esi
  401d9d:	bf 00 00 00 00       	mov    $0x0,%edi
  401da2:	e8 28 fd ff ff       	callq  401acf <notify_server>
  401da7:	48 83 c4 08          	add    $0x8,%rsp
  401dab:	c3                   	retq   

0000000000401dac <bushandler>:
  401dac:	48 83 ec 08          	sub    $0x8,%rsp
  401db0:	83 3d 71 27 20 00 00 	cmpl   $0x0,0x202771(%rip)        # 604528 <is_checker>
  401db7:	74 14                	je     401dcd <bushandler+0x21>
  401db9:	bf f5 32 40 00       	mov    $0x4032f5,%edi
  401dbe:	e8 0d ef ff ff       	callq  400cd0 <puts@plt>
  401dc3:	b8 00 00 00 00       	mov    $0x0,%eax
  401dc8:	e8 7b fc ff ff       	callq  401a48 <check_fail>
  401dcd:	bf 60 34 40 00       	mov    $0x403460,%edi
  401dd2:	e8 f9 ee ff ff       	callq  400cd0 <puts@plt>
  401dd7:	bf ff 32 40 00       	mov    $0x4032ff,%edi
  401ddc:	e8 ef ee ff ff       	callq  400cd0 <puts@plt>
  401de1:	be 00 00 00 00       	mov    $0x0,%esi
  401de6:	bf 00 00 00 00       	mov    $0x0,%edi
  401deb:	e8 df fc ff ff       	callq  401acf <notify_server>
  401df0:	bf 01 00 00 00       	mov    $0x1,%edi
  401df5:	e8 56 f0 ff ff       	callq  400e50 <exit@plt>

0000000000401dfa <seghandler>:
  401dfa:	48 83 ec 08          	sub    $0x8,%rsp
  401dfe:	83 3d 23 27 20 00 00 	cmpl   $0x0,0x202723(%rip)        # 604528 <is_checker>
  401e05:	74 14                	je     401e1b <seghandler+0x21>
  401e07:	bf 15 33 40 00       	mov    $0x403315,%edi
  401e0c:	e8 bf ee ff ff       	callq  400cd0 <puts@plt>
  401e11:	b8 00 00 00 00       	mov    $0x0,%eax
  401e16:	e8 2d fc ff ff       	callq  401a48 <check_fail>
  401e1b:	bf 80 34 40 00       	mov    $0x403480,%edi
  401e20:	e8 ab ee ff ff       	callq  400cd0 <puts@plt>
  401e25:	bf ff 32 40 00       	mov    $0x4032ff,%edi
  401e2a:	e8 a1 ee ff ff       	callq  400cd0 <puts@plt>
  401e2f:	be 00 00 00 00       	mov    $0x0,%esi
  401e34:	bf 00 00 00 00       	mov    $0x0,%edi
  401e39:	e8 91 fc ff ff       	callq  401acf <notify_server>
  401e3e:	bf 01 00 00 00       	mov    $0x1,%edi
  401e43:	e8 08 f0 ff ff       	callq  400e50 <exit@plt>

0000000000401e48 <illegalhandler>:
  401e48:	48 83 ec 08          	sub    $0x8,%rsp
  401e4c:	83 3d d5 26 20 00 00 	cmpl   $0x0,0x2026d5(%rip)        # 604528 <is_checker>
  401e53:	74 14                	je     401e69 <illegalhandler+0x21>
  401e55:	bf 28 33 40 00       	mov    $0x403328,%edi
  401e5a:	e8 71 ee ff ff       	callq  400cd0 <puts@plt>
  401e5f:	b8 00 00 00 00       	mov    $0x0,%eax
  401e64:	e8 df fb ff ff       	callq  401a48 <check_fail>
  401e69:	bf a8 34 40 00       	mov    $0x4034a8,%edi
  401e6e:	e8 5d ee ff ff       	callq  400cd0 <puts@plt>
  401e73:	bf ff 32 40 00       	mov    $0x4032ff,%edi
  401e78:	e8 53 ee ff ff       	callq  400cd0 <puts@plt>
  401e7d:	be 00 00 00 00       	mov    $0x0,%esi
  401e82:	bf 00 00 00 00       	mov    $0x0,%edi
  401e87:	e8 43 fc ff ff       	callq  401acf <notify_server>
  401e8c:	bf 01 00 00 00       	mov    $0x1,%edi
  401e91:	e8 ba ef ff ff       	callq  400e50 <exit@plt>

0000000000401e96 <sigalrmhandler>:
  401e96:	48 83 ec 08          	sub    $0x8,%rsp
  401e9a:	83 3d 87 26 20 00 00 	cmpl   $0x0,0x202687(%rip)        # 604528 <is_checker>
  401ea1:	74 14                	je     401eb7 <sigalrmhandler+0x21>
  401ea3:	bf 3c 33 40 00       	mov    $0x40333c,%edi
  401ea8:	e8 23 ee ff ff       	callq  400cd0 <puts@plt>
  401ead:	b8 00 00 00 00       	mov    $0x0,%eax
  401eb2:	e8 91 fb ff ff       	callq  401a48 <check_fail>
  401eb7:	ba 05 00 00 00       	mov    $0x5,%edx
  401ebc:	be d8 34 40 00       	mov    $0x4034d8,%esi
  401ec1:	bf 01 00 00 00       	mov    $0x1,%edi
  401ec6:	b8 00 00 00 00       	mov    $0x0,%eax
  401ecb:	e8 30 ef ff ff       	callq  400e00 <__printf_chk@plt>
  401ed0:	be 00 00 00 00       	mov    $0x0,%esi
  401ed5:	bf 00 00 00 00       	mov    $0x0,%edi
  401eda:	e8 f0 fb ff ff       	callq  401acf <notify_server>
  401edf:	bf 01 00 00 00       	mov    $0x1,%edi
  401ee4:	e8 67 ef ff ff       	callq  400e50 <exit@plt>

0000000000401ee9 <launch>:
  401ee9:	55                   	push   %rbp
  401eea:	48 89 e5             	mov    %rsp,%rbp
  401eed:	48 83 ec 10          	sub    $0x10,%rsp
  401ef1:	48 89 fa             	mov    %rdi,%rdx
  401ef4:	64 48 8b 04 25 28 00 	mov    %fs:0x28,%rax
  401efb:	00 00 
  401efd:	48 89 45 f8          	mov    %rax,-0x8(%rbp)
  401f01:	31 c0                	xor    %eax,%eax
  401f03:	48 8d 47 1e          	lea    0x1e(%rdi),%rax
  401f07:	48 83 e0 f0          	and    $0xfffffffffffffff0,%rax
  401f0b:	48 29 c4             	sub    %rax,%rsp
  401f0e:	48 8d 7c 24 0f       	lea    0xf(%rsp),%rdi
  401f13:	48 83 e7 f0          	and    $0xfffffffffffffff0,%rdi
  401f17:	be f4 00 00 00       	mov    $0xf4,%esi
  401f1c:	e8 ef ed ff ff       	callq  400d10 <memset@plt>
  401f21:	48 8b 05 98 25 20 00 	mov    0x202598(%rip),%rax        # 6044c0 <stdin@@GLIBC_2.2.5>
  401f28:	48 39 05 e1 25 20 00 	cmp    %rax,0x2025e1(%rip)        # 604510 <infile>
  401f2f:	75 14                	jne    401f45 <launch+0x5c>
  401f31:	be 44 33 40 00       	mov    $0x403344,%esi
  401f36:	bf 01 00 00 00       	mov    $0x1,%edi
  401f3b:	b8 00 00 00 00       	mov    $0x0,%eax
  401f40:	e8 bb ee ff ff       	callq  400e00 <__printf_chk@plt>
  401f45:	c7 05 cd 25 20 00 00 	movl   $0x0,0x2025cd(%rip)        # 60451c <vlevel>
  401f4c:	00 00 00 
  401f4f:	b8 00 00 00 00       	mov    $0x0,%eax
  401f54:	e8 5b fa ff ff       	callq  4019b4 <test>
  401f59:	83 3d c8 25 20 00 00 	cmpl   $0x0,0x2025c8(%rip)        # 604528 <is_checker>
  401f60:	74 14                	je     401f76 <launch+0x8d>
  401f62:	bf 51 33 40 00       	mov    $0x403351,%edi
  401f67:	e8 64 ed ff ff       	callq  400cd0 <puts@plt>
  401f6c:	b8 00 00 00 00       	mov    $0x0,%eax
  401f71:	e8 d2 fa ff ff       	callq  401a48 <check_fail>
  401f76:	bf 5c 33 40 00       	mov    $0x40335c,%edi
  401f7b:	e8 50 ed ff ff       	callq  400cd0 <puts@plt>
  401f80:	48 8b 45 f8          	mov    -0x8(%rbp),%rax
  401f84:	64 48 33 04 25 28 00 	xor    %fs:0x28,%rax
  401f8b:	00 00 
  401f8d:	74 05                	je     401f94 <launch+0xab>
  401f8f:	e8 5c ed ff ff       	callq  400cf0 <__stack_chk_fail@plt>
  401f94:	c9                   	leaveq 
  401f95:	c3                   	retq   

0000000000401f96 <stable_launch>:
  401f96:	53                   	push   %rbx
  401f97:	48 89 3d 6a 25 20 00 	mov    %rdi,0x20256a(%rip)        # 604508 <global_offset>
  401f9e:	41 b9 00 00 00 00    	mov    $0x0,%r9d
  401fa4:	41 b8 00 00 00 00    	mov    $0x0,%r8d
  401faa:	b9 32 01 00 00       	mov    $0x132,%ecx
  401faf:	ba 07 00 00 00       	mov    $0x7,%edx
  401fb4:	be 00 00 10 00       	mov    $0x100000,%esi
  401fb9:	bf 00 60 58 55       	mov    $0x55586000,%edi
  401fbe:	e8 3d ed ff ff       	callq  400d00 <mmap@plt>
  401fc3:	48 89 c3             	mov    %rax,%rbx
  401fc6:	48 3d 00 60 58 55    	cmp    $0x55586000,%rax
  401fcc:	74 37                	je     402005 <stable_launch+0x6f>
  401fce:	be 00 00 10 00       	mov    $0x100000,%esi
  401fd3:	48 89 c7             	mov    %rax,%rdi
  401fd6:	e8 15 ee ff ff       	callq  400df0 <munmap@plt>
  401fdb:	b9 00 60 58 55       	mov    $0x55586000,%ecx
  401fe0:	ba 10 35 40 00       	mov    $0x403510,%edx
  401fe5:	be 01 00 00 00       	mov    $0x1,%esi
  401fea:	48 8b 3d ef 24 20 00 	mov    0x2024ef(%rip),%rdi        # 6044e0 <stderr@@GLIBC_2.2.5>
  401ff1:	b8 00 00 00 00       	mov    $0x0,%eax
  401ff6:	e8 75 ee ff ff       	callq  400e70 <__fprintf_chk@plt>
  401ffb:	bf 01 00 00 00       	mov    $0x1,%edi
  402000:	e8 4b ee ff ff       	callq  400e50 <exit@plt>
  402005:	48 8d 90 f8 ff 0f 00 	lea    0xffff8(%rax),%rdx
  40200c:	48 89 15 3d 31 20 00 	mov    %rdx,0x20313d(%rip)        # 605150 <stack_top>
  402013:	48 89 e0             	mov    %rsp,%rax
  402016:	48 89 d4             	mov    %rdx,%rsp
  402019:	48 89 c2             	mov    %rax,%rdx
  40201c:	48 89 15 dd 24 20 00 	mov    %rdx,0x2024dd(%rip)        # 604500 <global_save_stack>
  402023:	48 8b 3d de 24 20 00 	mov    0x2024de(%rip),%rdi        # 604508 <global_offset>
  40202a:	e8 ba fe ff ff       	callq  401ee9 <launch>
  40202f:	48 8b 05 ca 24 20 00 	mov    0x2024ca(%rip),%rax        # 604500 <global_save_stack>
  402036:	48 89 c4             	mov    %rax,%rsp
  402039:	be 00 00 10 00       	mov    $0x100000,%esi
  40203e:	48 89 df             	mov    %rbx,%rdi
  402041:	e8 aa ed ff ff       	callq  400df0 <munmap@plt>
  402046:	5b                   	pop    %rbx
  402047:	c3                   	retq   

0000000000402048 <rio_readinitb>:
  402048:	89 37                	mov    %esi,(%rdi)
  40204a:	c7 47 04 00 00 00 00 	movl   $0x0,0x4(%rdi)
  402051:	48 8d 47 10          	lea    0x10(%rdi),%rax
  402055:	48 89 47 08          	mov    %rax,0x8(%rdi)
  402059:	c3                   	retq   

000000000040205a <sigalrm_handler>:
  40205a:	48 83 ec 08          	sub    $0x8,%rsp
  40205e:	b9 00 00 00 00       	mov    $0x0,%ecx
  402063:	ba 50 35 40 00       	mov    $0x403550,%edx
  402068:	be 01 00 00 00       	mov    $0x1,%esi
  40206d:	48 8b 3d 6c 24 20 00 	mov    0x20246c(%rip),%rdi        # 6044e0 <stderr@@GLIBC_2.2.5>
  402074:	b8 00 00 00 00       	mov    $0x0,%eax
  402079:	e8 f2 ed ff ff       	callq  400e70 <__fprintf_chk@plt>
  40207e:	bf 01 00 00 00       	mov    $0x1,%edi
  402083:	e8 c8 ed ff ff       	callq  400e50 <exit@plt>

0000000000402088 <rio_writen>:
  402088:	41 55                	push   %r13
  40208a:	41 54                	push   %r12
  40208c:	55                   	push   %rbp
  40208d:	53                   	push   %rbx
  40208e:	48 83 ec 08          	sub    $0x8,%rsp
  402092:	41 89 fc             	mov    %edi,%r12d
  402095:	48 89 f5             	mov    %rsi,%rbp
  402098:	49 89 d5             	mov    %rdx,%r13
  40209b:	48 89 d3             	mov    %rdx,%rbx
  40209e:	eb 28                	jmp    4020c8 <rio_writen+0x40>
  4020a0:	48 89 da             	mov    %rbx,%rdx
  4020a3:	48 89 ee             	mov    %rbp,%rsi
  4020a6:	44 89 e7             	mov    %r12d,%edi
  4020a9:	e8 32 ec ff ff       	callq  400ce0 <write@plt>
  4020ae:	48 85 c0             	test   %rax,%rax
  4020b1:	7f 0f                	jg     4020c2 <rio_writen+0x3a>
  4020b3:	e8 d8 eb ff ff       	callq  400c90 <__errno_location@plt>
  4020b8:	83 38 04             	cmpl   $0x4,(%rax)
  4020bb:	75 15                	jne    4020d2 <rio_writen+0x4a>
  4020bd:	b8 00 00 00 00       	mov    $0x0,%eax
  4020c2:	48 29 c3             	sub    %rax,%rbx
  4020c5:	48 01 c5             	add    %rax,%rbp
  4020c8:	48 85 db             	test   %rbx,%rbx
  4020cb:	75 d3                	jne    4020a0 <rio_writen+0x18>
  4020cd:	4c 89 e8             	mov    %r13,%rax
  4020d0:	eb 07                	jmp    4020d9 <rio_writen+0x51>
  4020d2:	48 c7 c0 ff ff ff ff 	mov    $0xffffffffffffffff,%rax
  4020d9:	48 83 c4 08          	add    $0x8,%rsp
  4020dd:	5b                   	pop    %rbx
  4020de:	5d                   	pop    %rbp
  4020df:	41 5c                	pop    %r12
  4020e1:	41 5d                	pop    %r13
  4020e3:	c3                   	retq   

00000000004020e4 <rio_read>:
  4020e4:	41 55                	push   %r13
  4020e6:	41 54                	push   %r12
  4020e8:	55                   	push   %rbp
  4020e9:	53                   	push   %rbx
  4020ea:	48 83 ec 08          	sub    $0x8,%rsp
  4020ee:	48 89 fb             	mov    %rdi,%rbx
  4020f1:	49 89 f5             	mov    %rsi,%r13
  4020f4:	49 89 d4             	mov    %rdx,%r12
  4020f7:	eb 2e                	jmp    402127 <rio_read+0x43>
  4020f9:	48 8d 6b 10          	lea    0x10(%rbx),%rbp
  4020fd:	8b 3b                	mov    (%rbx),%edi
  4020ff:	ba 00 20 00 00       	mov    $0x2000,%edx
  402104:	48 89 ee             	mov    %rbp,%rsi
  402107:	e8 34 ec ff ff       	callq  400d40 <read@plt>
  40210c:	89 43 04             	mov    %eax,0x4(%rbx)
  40210f:	85 c0                	test   %eax,%eax
  402111:	79 0c                	jns    40211f <rio_read+0x3b>
  402113:	e8 78 eb ff ff       	callq  400c90 <__errno_location@plt>
  402118:	83 38 04             	cmpl   $0x4,(%rax)
  40211b:	74 0a                	je     402127 <rio_read+0x43>
  40211d:	eb 37                	jmp    402156 <rio_read+0x72>
  40211f:	85 c0                	test   %eax,%eax
  402121:	74 3c                	je     40215f <rio_read+0x7b>
  402123:	48 89 6b 08          	mov    %rbp,0x8(%rbx)
  402127:	8b 6b 04             	mov    0x4(%rbx),%ebp
  40212a:	85 ed                	test   %ebp,%ebp
  40212c:	7e cb                	jle    4020f9 <rio_read+0x15>
  40212e:	89 e8                	mov    %ebp,%eax
  402130:	49 39 c4             	cmp    %rax,%r12
  402133:	77 03                	ja     402138 <rio_read+0x54>
  402135:	44 89 e5             	mov    %r12d,%ebp
  402138:	4c 63 e5             	movslq %ebp,%r12
  40213b:	48 8b 73 08          	mov    0x8(%rbx),%rsi
  40213f:	4c 89 e2             	mov    %r12,%rdx
  402142:	4c 89 ef             	mov    %r13,%rdi
  402145:	e8 56 ec ff ff       	callq  400da0 <memcpy@plt>
  40214a:	4c 01 63 08          	add    %r12,0x8(%rbx)
  40214e:	29 6b 04             	sub    %ebp,0x4(%rbx)
  402151:	4c 89 e0             	mov    %r12,%rax
  402154:	eb 0e                	jmp    402164 <rio_read+0x80>
  402156:	48 c7 c0 ff ff ff ff 	mov    $0xffffffffffffffff,%rax
  40215d:	eb 05                	jmp    402164 <rio_read+0x80>
  40215f:	b8 00 00 00 00       	mov    $0x0,%eax
  402164:	48 83 c4 08          	add    $0x8,%rsp
  402168:	5b                   	pop    %rbx
  402169:	5d                   	pop    %rbp
  40216a:	41 5c                	pop    %r12
  40216c:	41 5d                	pop    %r13
  40216e:	c3                   	retq   

000000000040216f <rio_readlineb>:
  40216f:	41 55                	push   %r13
  402171:	41 54                	push   %r12
  402173:	55                   	push   %rbp
  402174:	53                   	push   %rbx
  402175:	48 83 ec 18          	sub    $0x18,%rsp
  402179:	49 89 fd             	mov    %rdi,%r13
  40217c:	48 89 f5             	mov    %rsi,%rbp
  40217f:	49 89 d4             	mov    %rdx,%r12
  402182:	64 48 8b 04 25 28 00 	mov    %fs:0x28,%rax
  402189:	00 00 
  40218b:	48 89 44 24 08       	mov    %rax,0x8(%rsp)
  402190:	31 c0                	xor    %eax,%eax
  402192:	bb 01 00 00 00       	mov    $0x1,%ebx
  402197:	eb 3f                	jmp    4021d8 <rio_readlineb+0x69>
  402199:	ba 01 00 00 00       	mov    $0x1,%edx
  40219e:	48 8d 74 24 07       	lea    0x7(%rsp),%rsi
  4021a3:	4c 89 ef             	mov    %r13,%rdi
  4021a6:	e8 39 ff ff ff       	callq  4020e4 <rio_read>
  4021ab:	83 f8 01             	cmp    $0x1,%eax
  4021ae:	75 15                	jne    4021c5 <rio_readlineb+0x56>
  4021b0:	48 8d 45 01          	lea    0x1(%rbp),%rax
  4021b4:	0f b6 54 24 07       	movzbl 0x7(%rsp),%edx
  4021b9:	88 55 00             	mov    %dl,0x0(%rbp)
  4021bc:	80 7c 24 07 0a       	cmpb   $0xa,0x7(%rsp)
  4021c1:	75 0e                	jne    4021d1 <rio_readlineb+0x62>
  4021c3:	eb 1a                	jmp    4021df <rio_readlineb+0x70>
  4021c5:	85 c0                	test   %eax,%eax
  4021c7:	75 22                	jne    4021eb <rio_readlineb+0x7c>
  4021c9:	48 83 fb 01          	cmp    $0x1,%rbx
  4021cd:	75 13                	jne    4021e2 <rio_readlineb+0x73>
  4021cf:	eb 23                	jmp    4021f4 <rio_readlineb+0x85>
  4021d1:	48 83 c3 01          	add    $0x1,%rbx
  4021d5:	48 89 c5             	mov    %rax,%rbp
  4021d8:	4c 39 e3             	cmp    %r12,%rbx
  4021db:	72 bc                	jb     402199 <rio_readlineb+0x2a>
  4021dd:	eb 03                	jmp    4021e2 <rio_readlineb+0x73>
  4021df:	48 89 c5             	mov    %rax,%rbp
  4021e2:	c6 45 00 00          	movb   $0x0,0x0(%rbp)
  4021e6:	48 89 d8             	mov    %rbx,%rax
  4021e9:	eb 0e                	jmp    4021f9 <rio_readlineb+0x8a>
  4021eb:	48 c7 c0 ff ff ff ff 	mov    $0xffffffffffffffff,%rax
  4021f2:	eb 05                	jmp    4021f9 <rio_readlineb+0x8a>
  4021f4:	b8 00 00 00 00       	mov    $0x0,%eax
  4021f9:	48 8b 4c 24 08       	mov    0x8(%rsp),%rcx
  4021fe:	64 48 33 0c 25 28 00 	xor    %fs:0x28,%rcx
  402205:	00 00 
  402207:	74 05                	je     40220e <rio_readlineb+0x9f>
  402209:	e8 e2 ea ff ff       	callq  400cf0 <__stack_chk_fail@plt>
  40220e:	48 83 c4 18          	add    $0x18,%rsp
  402212:	5b                   	pop    %rbx
  402213:	5d                   	pop    %rbp
  402214:	41 5c                	pop    %r12
  402216:	41 5d                	pop    %r13
  402218:	c3                   	retq   

0000000000402219 <urlencode>:
  402219:	41 54                	push   %r12
  40221b:	55                   	push   %rbp
  40221c:	53                   	push   %rbx
  40221d:	48 83 ec 10          	sub    $0x10,%rsp
  402221:	48 89 fb             	mov    %rdi,%rbx
  402224:	48 89 f5             	mov    %rsi,%rbp
  402227:	64 48 8b 04 25 28 00 	mov    %fs:0x28,%rax
  40222e:	00 00 
  402230:	48 89 44 24 08       	mov    %rax,0x8(%rsp)
  402235:	31 c0                	xor    %eax,%eax
  402237:	48 c7 c1 ff ff ff ff 	mov    $0xffffffffffffffff,%rcx
  40223e:	f2 ae                	repnz scas %es:(%rdi),%al
  402240:	48 f7 d1             	not    %rcx
  402243:	8d 41 ff             	lea    -0x1(%rcx),%eax
  402246:	e9 aa 00 00 00       	jmpq   4022f5 <urlencode+0xdc>
  40224b:	44 0f b6 03          	movzbl (%rbx),%r8d
  40224f:	41 80 f8 2a          	cmp    $0x2a,%r8b
  402253:	0f 94 c2             	sete   %dl
  402256:	41 80 f8 2d          	cmp    $0x2d,%r8b
  40225a:	0f 94 c0             	sete   %al
  40225d:	08 c2                	or     %al,%dl
  40225f:	75 24                	jne    402285 <urlencode+0x6c>
  402261:	41 80 f8 2e          	cmp    $0x2e,%r8b
  402265:	74 1e                	je     402285 <urlencode+0x6c>
  402267:	41 80 f8 5f          	cmp    $0x5f,%r8b
  40226b:	74 18                	je     402285 <urlencode+0x6c>
  40226d:	41 8d 40 d0          	lea    -0x30(%r8),%eax
  402271:	3c 09                	cmp    $0x9,%al
  402273:	76 10                	jbe    402285 <urlencode+0x6c>
  402275:	41 8d 40 bf          	lea    -0x41(%r8),%eax
  402279:	3c 19                	cmp    $0x19,%al
  40227b:	76 08                	jbe    402285 <urlencode+0x6c>
  40227d:	41 8d 40 9f          	lea    -0x61(%r8),%eax
  402281:	3c 19                	cmp    $0x19,%al
  402283:	77 0a                	ja     40228f <urlencode+0x76>
  402285:	44 88 45 00          	mov    %r8b,0x0(%rbp)
  402289:	48 8d 6d 01          	lea    0x1(%rbp),%rbp
  40228d:	eb 5f                	jmp    4022ee <urlencode+0xd5>
  40228f:	41 80 f8 20          	cmp    $0x20,%r8b
  402293:	75 0a                	jne    40229f <urlencode+0x86>
  402295:	c6 45 00 2b          	movb   $0x2b,0x0(%rbp)
  402299:	48 8d 6d 01          	lea    0x1(%rbp),%rbp
  40229d:	eb 4f                	jmp    4022ee <urlencode+0xd5>
  40229f:	41 8d 40 e0          	lea    -0x20(%r8),%eax
  4022a3:	3c 5f                	cmp    $0x5f,%al
  4022a5:	0f 96 c2             	setbe  %dl
  4022a8:	41 80 f8 09          	cmp    $0x9,%r8b
  4022ac:	0f 94 c0             	sete   %al
  4022af:	08 c2                	or     %al,%dl
  4022b1:	74 50                	je     402303 <urlencode+0xea>
  4022b3:	45 0f b6 c0          	movzbl %r8b,%r8d
  4022b7:	b9 e8 35 40 00       	mov    $0x4035e8,%ecx
  4022bc:	ba 08 00 00 00       	mov    $0x8,%edx
  4022c1:	be 01 00 00 00       	mov    $0x1,%esi
  4022c6:	48 89 e7             	mov    %rsp,%rdi
  4022c9:	b8 00 00 00 00       	mov    $0x0,%eax
  4022ce:	e8 ad eb ff ff       	callq  400e80 <__sprintf_chk@plt>
  4022d3:	0f b6 04 24          	movzbl (%rsp),%eax
  4022d7:	88 45 00             	mov    %al,0x0(%rbp)
  4022da:	0f b6 44 24 01       	movzbl 0x1(%rsp),%eax
  4022df:	88 45 01             	mov    %al,0x1(%rbp)
  4022e2:	0f b6 44 24 02       	movzbl 0x2(%rsp),%eax
  4022e7:	88 45 02             	mov    %al,0x2(%rbp)
  4022ea:	48 8d 6d 03          	lea    0x3(%rbp),%rbp
  4022ee:	48 83 c3 01          	add    $0x1,%rbx
  4022f2:	44 89 e0             	mov    %r12d,%eax
  4022f5:	44 8d 60 ff          	lea    -0x1(%rax),%r12d
  4022f9:	85 c0                	test   %eax,%eax
  4022fb:	0f 85 4a ff ff ff    	jne    40224b <urlencode+0x32>
  402301:	eb 05                	jmp    402308 <urlencode+0xef>
  402303:	b8 ff ff ff ff       	mov    $0xffffffff,%eax
  402308:	48 8b 74 24 08       	mov    0x8(%rsp),%rsi
  40230d:	64 48 33 34 25 28 00 	xor    %fs:0x28,%rsi
  402314:	00 00 
  402316:	74 05                	je     40231d <urlencode+0x104>
  402318:	e8 d3 e9 ff ff       	callq  400cf0 <__stack_chk_fail@plt>
  40231d:	48 83 c4 10          	add    $0x10,%rsp
  402321:	5b                   	pop    %rbx
  402322:	5d                   	pop    %rbp
  402323:	41 5c                	pop    %r12
  402325:	c3                   	retq   

0000000000402326 <submitr>:
  402326:	41 57                	push   %r15
  402328:	41 56                	push   %r14
  40232a:	41 55                	push   %r13
  40232c:	41 54                	push   %r12
  40232e:	55                   	push   %rbp
  40232f:	53                   	push   %rbx
  402330:	48 81 ec 58 a0 00 00 	sub    $0xa058,%rsp
  402337:	49 89 fc             	mov    %rdi,%r12
  40233a:	89 74 24 04          	mov    %esi,0x4(%rsp)
  40233e:	49 89 d7             	mov    %rdx,%r15
  402341:	49 89 ce             	mov    %rcx,%r14
  402344:	4c 89 44 24 08       	mov    %r8,0x8(%rsp)
  402349:	4d 89 cd             	mov    %r9,%r13
  40234c:	48 8b 9c 24 90 a0 00 	mov    0xa090(%rsp),%rbx
  402353:	00 
  402354:	64 48 8b 04 25 28 00 	mov    %fs:0x28,%rax
  40235b:	00 00 
  40235d:	48 89 84 24 48 a0 00 	mov    %rax,0xa048(%rsp)
  402364:	00 
  402365:	31 c0                	xor    %eax,%eax
  402367:	c7 44 24 1c 00 00 00 	movl   $0x0,0x1c(%rsp)
  40236e:	00 
  40236f:	ba 00 00 00 00       	mov    $0x0,%edx
  402374:	be 01 00 00 00       	mov    $0x1,%esi
  402379:	bf 02 00 00 00       	mov    $0x2,%edi
  40237e:	e8 0d eb ff ff       	callq  400e90 <socket@plt>
  402383:	85 c0                	test   %eax,%eax
  402385:	79 4e                	jns    4023d5 <submitr+0xaf>
  402387:	48 b8 45 72 72 6f 72 	movabs $0x43203a726f727245,%rax
  40238e:	3a 20 43 
  402391:	48 89 03             	mov    %rax,(%rbx)
  402394:	48 b8 6c 69 65 6e 74 	movabs $0x6e7520746e65696c,%rax
  40239b:	20 75 6e 
  40239e:	48 89 43 08          	mov    %rax,0x8(%rbx)
  4023a2:	48 b8 61 62 6c 65 20 	movabs $0x206f7420656c6261,%rax
  4023a9:	74 6f 20 
  4023ac:	48 89 43 10          	mov    %rax,0x10(%rbx)
  4023b0:	48 b8 63 72 65 61 74 	movabs $0x7320657461657263,%rax
  4023b7:	65 20 73 
  4023ba:	48 89 43 18          	mov    %rax,0x18(%rbx)
  4023be:	c7 43 20 6f 63 6b 65 	movl   $0x656b636f,0x20(%rbx)
  4023c5:	66 c7 43 24 74 00    	movw   $0x74,0x24(%rbx)
  4023cb:	b8 ff ff ff ff       	mov    $0xffffffff,%eax
  4023d0:	e9 97 06 00 00       	jmpq   402a6c <submitr+0x746>
  4023d5:	89 c5                	mov    %eax,%ebp
  4023d7:	4c 89 e7             	mov    %r12,%rdi
  4023da:	e8 91 e9 ff ff       	callq  400d70 <gethostbyname@plt>
  4023df:	48 85 c0             	test   %rax,%rax
  4023e2:	75 67                	jne    40244b <submitr+0x125>
  4023e4:	48 b8 45 72 72 6f 72 	movabs $0x44203a726f727245,%rax
  4023eb:	3a 20 44 
  4023ee:	48 89 03             	mov    %rax,(%rbx)
  4023f1:	48 b8 4e 53 20 69 73 	movabs $0x6e7520736920534e,%rax
  4023f8:	20 75 6e 
  4023fb:	48 89 43 08          	mov    %rax,0x8(%rbx)
  4023ff:	48 b8 61 62 6c 65 20 	movabs $0x206f7420656c6261,%rax
  402406:	74 6f 20 
  402409:	48 89 43 10          	mov    %rax,0x10(%rbx)
  40240d:	48 b8 72 65 73 6f 6c 	movabs $0x2065766c6f736572,%rax
  402414:	76 65 20 
  402417:	48 89 43 18          	mov    %rax,0x18(%rbx)
  40241b:	48 b8 73 65 72 76 65 	movabs $0x6120726576726573,%rax
  402422:	72 20 61 
  402425:	48 89 43 20          	mov    %rax,0x20(%rbx)
  402429:	c7 43 28 64 64 72 65 	movl   $0x65726464,0x28(%rbx)
  402430:	66 c7 43 2c 73 73    	movw   $0x7373,0x2c(%rbx)
  402436:	c6 43 2e 00          	movb   $0x0,0x2e(%rbx)
  40243a:	89 ef                	mov    %ebp,%edi
  40243c:	e8 ef e8 ff ff       	callq  400d30 <close@plt>
  402441:	b8 ff ff ff ff       	mov    $0xffffffff,%eax
  402446:	e9 21 06 00 00       	jmpq   402a6c <submitr+0x746>
  40244b:	48 c7 44 24 20 00 00 	movq   $0x0,0x20(%rsp)
  402452:	00 00 
  402454:	48 c7 44 24 28 00 00 	movq   $0x0,0x28(%rsp)
  40245b:	00 00 
  40245d:	66 c7 44 24 20 02 00 	movw   $0x2,0x20(%rsp)
  402464:	48 63 50 14          	movslq 0x14(%rax),%rdx
  402468:	48 8b 40 18          	mov    0x18(%rax),%rax
  40246c:	48 8b 30             	mov    (%rax),%rsi
  40246f:	48 8d 7c 24 24       	lea    0x24(%rsp),%rdi
  402474:	b9 0c 00 00 00       	mov    $0xc,%ecx
  402479:	e8 02 e9 ff ff       	callq  400d80 <__memmove_chk@plt>
  40247e:	0f b7 44 24 04       	movzwl 0x4(%rsp),%eax
  402483:	66 c1 c8 08          	ror    $0x8,%ax
  402487:	66 89 44 24 22       	mov    %ax,0x22(%rsp)
  40248c:	ba 10 00 00 00       	mov    $0x10,%edx
  402491:	48 8d 74 24 20       	lea    0x20(%rsp),%rsi
  402496:	89 ef                	mov    %ebp,%edi
  402498:	e8 c3 e9 ff ff       	callq  400e60 <connect@plt>
  40249d:	85 c0                	test   %eax,%eax
  40249f:	79 59                	jns    4024fa <submitr+0x1d4>
  4024a1:	48 b8 45 72 72 6f 72 	movabs $0x55203a726f727245,%rax
  4024a8:	3a 20 55 
  4024ab:	48 89 03             	mov    %rax,(%rbx)
  4024ae:	48 b8 6e 61 62 6c 65 	movabs $0x6f7420656c62616e,%rax
  4024b5:	20 74 6f 
  4024b8:	48 89 43 08          	mov    %rax,0x8(%rbx)
  4024bc:	48 b8 20 63 6f 6e 6e 	movabs $0x7463656e6e6f6320,%rax
  4024c3:	65 63 74 
  4024c6:	48 89 43 10          	mov    %rax,0x10(%rbx)
  4024ca:	48 b8 20 74 6f 20 74 	movabs $0x20656874206f7420,%rax
  4024d1:	68 65 20 
  4024d4:	48 89 43 18          	mov    %rax,0x18(%rbx)
  4024d8:	c7 43 20 73 65 72 76 	movl   $0x76726573,0x20(%rbx)
  4024df:	66 c7 43 24 65 72    	movw   $0x7265,0x24(%rbx)
  4024e5:	c6 43 26 00          	movb   $0x0,0x26(%rbx)
  4024e9:	89 ef                	mov    %ebp,%edi
  4024eb:	e8 40 e8 ff ff       	callq  400d30 <close@plt>
  4024f0:	b8 ff ff ff ff       	mov    $0xffffffff,%eax
  4024f5:	e9 72 05 00 00       	jmpq   402a6c <submitr+0x746>
  4024fa:	48 c7 c6 ff ff ff ff 	mov    $0xffffffffffffffff,%rsi
  402501:	b8 00 00 00 00       	mov    $0x0,%eax
  402506:	48 89 f1             	mov    %rsi,%rcx
  402509:	4c 89 ef             	mov    %r13,%rdi
  40250c:	f2 ae                	repnz scas %es:(%rdi),%al
  40250e:	48 f7 d1             	not    %rcx
  402511:	48 89 ca             	mov    %rcx,%rdx
  402514:	48 89 f1             	mov    %rsi,%rcx
  402517:	4c 89 ff             	mov    %r15,%rdi
  40251a:	f2 ae                	repnz scas %es:(%rdi),%al
  40251c:	48 f7 d1             	not    %rcx
  40251f:	49 89 c8             	mov    %rcx,%r8
  402522:	48 89 f1             	mov    %rsi,%rcx
  402525:	4c 89 f7             	mov    %r14,%rdi
  402528:	f2 ae                	repnz scas %es:(%rdi),%al
  40252a:	48 f7 d1             	not    %rcx
  40252d:	4d 8d 44 08 fe       	lea    -0x2(%r8,%rcx,1),%r8
  402532:	48 89 f1             	mov    %rsi,%rcx
  402535:	48 8b 7c 24 08       	mov    0x8(%rsp),%rdi
  40253a:	f2 ae                	repnz scas %es:(%rdi),%al
  40253c:	48 89 c8             	mov    %rcx,%rax
  40253f:	48 f7 d0             	not    %rax
  402542:	49 8d 4c 00 ff       	lea    -0x1(%r8,%rax,1),%rcx
  402547:	48 8d 44 52 fd       	lea    -0x3(%rdx,%rdx,2),%rax
  40254c:	48 8d 84 01 80 00 00 	lea    0x80(%rcx,%rax,1),%rax
  402553:	00 
  402554:	48 3d 00 20 00 00    	cmp    $0x2000,%rax
  40255a:	76 72                	jbe    4025ce <submitr+0x2a8>
  40255c:	48 b8 45 72 72 6f 72 	movabs $0x52203a726f727245,%rax
  402563:	3a 20 52 
  402566:	48 89 03             	mov    %rax,(%rbx)
  402569:	48 b8 65 73 75 6c 74 	movabs $0x747320746c757365,%rax
  402570:	20 73 74 
  402573:	48 89 43 08          	mov    %rax,0x8(%rbx)
  402577:	48 b8 72 69 6e 67 20 	movabs $0x6f6f7420676e6972,%rax
  40257e:	74 6f 6f 
  402581:	48 89 43 10          	mov    %rax,0x10(%rbx)
  402585:	48 b8 20 6c 61 72 67 	movabs $0x202e656772616c20,%rax
  40258c:	65 2e 20 
  40258f:	48 89 43 18          	mov    %rax,0x18(%rbx)
  402593:	48 b8 49 6e 63 72 65 	movabs $0x6573616572636e49,%rax
  40259a:	61 73 65 
  40259d:	48 89 43 20          	mov    %rax,0x20(%rbx)
  4025a1:	48 b8 20 53 55 42 4d 	movabs $0x5254494d42555320,%rax
  4025a8:	49 54 52 
  4025ab:	48 89 43 28          	mov    %rax,0x28(%rbx)
  4025af:	48 b8 5f 4d 41 58 42 	movabs $0x46554258414d5f,%rax
  4025b6:	55 46 00 
  4025b9:	48 89 43 30          	mov    %rax,0x30(%rbx)
  4025bd:	89 ef                	mov    %ebp,%edi
  4025bf:	e8 6c e7 ff ff       	callq  400d30 <close@plt>
  4025c4:	b8 ff ff ff ff       	mov    $0xffffffff,%eax
  4025c9:	e9 9e 04 00 00       	jmpq   402a6c <submitr+0x746>
  4025ce:	48 8d b4 24 40 40 00 	lea    0x4040(%rsp),%rsi
  4025d5:	00 
  4025d6:	b9 00 04 00 00       	mov    $0x400,%ecx
  4025db:	b8 00 00 00 00       	mov    $0x0,%eax
  4025e0:	48 89 f7             	mov    %rsi,%rdi
  4025e3:	f3 48 ab             	rep stos %rax,%es:(%rdi)
  4025e6:	4c 89 ef             	mov    %r13,%rdi
  4025e9:	e8 2b fc ff ff       	callq  402219 <urlencode>
  4025ee:	85 c0                	test   %eax,%eax
  4025f0:	0f 89 8a 00 00 00    	jns    402680 <submitr+0x35a>
  4025f6:	48 b8 45 72 72 6f 72 	movabs $0x52203a726f727245,%rax
  4025fd:	3a 20 52 
  402600:	48 89 03             	mov    %rax,(%rbx)
  402603:	48 b8 65 73 75 6c 74 	movabs $0x747320746c757365,%rax
  40260a:	20 73 74 
  40260d:	48 89 43 08          	mov    %rax,0x8(%rbx)
  402611:	48 b8 72 69 6e 67 20 	movabs $0x6e6f6320676e6972,%rax
  402618:	63 6f 6e 
  40261b:	48 89 43 10          	mov    %rax,0x10(%rbx)
  40261f:	48 b8 74 61 69 6e 73 	movabs $0x6e6120736e696174,%rax
  402626:	20 61 6e 
  402629:	48 89 43 18          	mov    %rax,0x18(%rbx)
  40262d:	48 b8 20 69 6c 6c 65 	movabs $0x6c6167656c6c6920,%rax
  402634:	67 61 6c 
  402637:	48 89 43 20          	mov    %rax,0x20(%rbx)
  40263b:	48 b8 20 6f 72 20 75 	movabs $0x72706e7520726f20,%rax
  402642:	6e 70 72 
  402645:	48 89 43 28          	mov    %rax,0x28(%rbx)
  402649:	48 b8 69 6e 74 61 62 	movabs $0x20656c6261746e69,%rax
  402650:	6c 65 20 
  402653:	48 89 43 30          	mov    %rax,0x30(%rbx)
  402657:	48 b8 63 68 61 72 61 	movabs $0x6574636172616863,%rax
  40265e:	63 74 65 
  402661:	48 89 43 38          	mov    %rax,0x38(%rbx)
  402665:	66 c7 43 40 72 2e    	movw   $0x2e72,0x40(%rbx)
  40266b:	c6 43 42 00          	movb   $0x0,0x42(%rbx)
  40266f:	89 ef                	mov    %ebp,%edi
  402671:	e8 ba e6 ff ff       	callq  400d30 <close@plt>
  402676:	b8 ff ff ff ff       	mov    $0xffffffff,%eax
  40267b:	e9 ec 03 00 00       	jmpq   402a6c <submitr+0x746>
  402680:	4c 8d ac 24 40 20 00 	lea    0x2040(%rsp),%r13
  402687:	00 
  402688:	41 54                	push   %r12
  40268a:	48 8d 84 24 48 40 00 	lea    0x4048(%rsp),%rax
  402691:	00 
  402692:	50                   	push   %rax
  402693:	4d 89 f9             	mov    %r15,%r9
  402696:	4d 89 f0             	mov    %r14,%r8
  402699:	b9 78 35 40 00       	mov    $0x403578,%ecx
  40269e:	ba 00 20 00 00       	mov    $0x2000,%edx
  4026a3:	be 01 00 00 00       	mov    $0x1,%esi
  4026a8:	4c 89 ef             	mov    %r13,%rdi
  4026ab:	b8 00 00 00 00       	mov    $0x0,%eax
  4026b0:	e8 cb e7 ff ff       	callq  400e80 <__sprintf_chk@plt>
  4026b5:	b8 00 00 00 00       	mov    $0x0,%eax
  4026ba:	48 c7 c1 ff ff ff ff 	mov    $0xffffffffffffffff,%rcx
  4026c1:	4c 89 ef             	mov    %r13,%rdi
  4026c4:	f2 ae                	repnz scas %es:(%rdi),%al
  4026c6:	48 f7 d1             	not    %rcx
  4026c9:	48 8d 51 ff          	lea    -0x1(%rcx),%rdx
  4026cd:	4c 89 ee             	mov    %r13,%rsi
  4026d0:	89 ef                	mov    %ebp,%edi
  4026d2:	e8 b1 f9 ff ff       	callq  402088 <rio_writen>
  4026d7:	48 83 c4 10          	add    $0x10,%rsp
  4026db:	48 85 c0             	test   %rax,%rax
  4026de:	79 6e                	jns    40274e <submitr+0x428>
  4026e0:	48 b8 45 72 72 6f 72 	movabs $0x43203a726f727245,%rax
  4026e7:	3a 20 43 
  4026ea:	48 89 03             	mov    %rax,(%rbx)
  4026ed:	48 b8 6c 69 65 6e 74 	movabs $0x6e7520746e65696c,%rax
  4026f4:	20 75 6e 
  4026f7:	48 89 43 08          	mov    %rax,0x8(%rbx)
  4026fb:	48 b8 61 62 6c 65 20 	movabs $0x206f7420656c6261,%rax
  402702:	74 6f 20 
  402705:	48 89 43 10          	mov    %rax,0x10(%rbx)
  402709:	48 b8 77 72 69 74 65 	movabs $0x6f74206574697277,%rax
  402710:	20 74 6f 
  402713:	48 89 43 18          	mov    %rax,0x18(%rbx)
  402717:	48 b8 20 74 68 65 20 	movabs $0x7365722065687420,%rax
  40271e:	72 65 73 
  402721:	48 89 43 20          	mov    %rax,0x20(%rbx)
  402725:	48 b8 75 6c 74 20 73 	movabs $0x7672657320746c75,%rax
  40272c:	65 72 76 
  40272f:	48 89 43 28          	mov    %rax,0x28(%rbx)
  402733:	66 c7 43 30 65 72    	movw   $0x7265,0x30(%rbx)
  402739:	c6 43 32 00          	movb   $0x0,0x32(%rbx)
  40273d:	89 ef                	mov    %ebp,%edi
  40273f:	e8 ec e5 ff ff       	callq  400d30 <close@plt>
  402744:	b8 ff ff ff ff       	mov    $0xffffffff,%eax
  402749:	e9 1e 03 00 00       	jmpq   402a6c <submitr+0x746>
  40274e:	89 ee                	mov    %ebp,%esi
  402750:	48 8d 7c 24 30       	lea    0x30(%rsp),%rdi
  402755:	e8 ee f8 ff ff       	callq  402048 <rio_readinitb>
  40275a:	ba 00 20 00 00       	mov    $0x2000,%edx
  40275f:	48 8d b4 24 40 20 00 	lea    0x2040(%rsp),%rsi
  402766:	00 
  402767:	48 8d 7c 24 30       	lea    0x30(%rsp),%rdi
  40276c:	e8 fe f9 ff ff       	callq  40216f <rio_readlineb>
  402771:	48 85 c0             	test   %rax,%rax
  402774:	7f 7d                	jg     4027f3 <submitr+0x4cd>
  402776:	48 b8 45 72 72 6f 72 	movabs $0x43203a726f727245,%rax
  40277d:	3a 20 43 
  402780:	48 89 03             	mov    %rax,(%rbx)
  402783:	48 b8 6c 69 65 6e 74 	movabs $0x6e7520746e65696c,%rax
  40278a:	20 75 6e 
  40278d:	48 89 43 08          	mov    %rax,0x8(%rbx)
  402791:	48 b8 61 62 6c 65 20 	movabs $0x206f7420656c6261,%rax
  402798:	74 6f 20 
  40279b:	48 89 43 10          	mov    %rax,0x10(%rbx)
  40279f:	48 b8 72 65 61 64 20 	movabs $0x7269662064616572,%rax
  4027a6:	66 69 72 
  4027a9:	48 89 43 18          	mov    %rax,0x18(%rbx)
  4027ad:	48 b8 73 74 20 68 65 	movabs $0x6564616568207473,%rax
  4027b4:	61 64 65 
  4027b7:	48 89 43 20          	mov    %rax,0x20(%rbx)
  4027bb:	48 b8 72 20 66 72 6f 	movabs $0x72206d6f72662072,%rax
  4027c2:	6d 20 72 
  4027c5:	48 89 43 28          	mov    %rax,0x28(%rbx)
  4027c9:	48 b8 65 73 75 6c 74 	movabs $0x657320746c757365,%rax
  4027d0:	20 73 65 
  4027d3:	48 89 43 30          	mov    %rax,0x30(%rbx)
  4027d7:	c7 43 38 72 76 65 72 	movl   $0x72657672,0x38(%rbx)
  4027de:	c6 43 3c 00          	movb   $0x0,0x3c(%rbx)
  4027e2:	89 ef                	mov    %ebp,%edi
  4027e4:	e8 47 e5 ff ff       	callq  400d30 <close@plt>
  4027e9:	b8 ff ff ff ff       	mov    $0xffffffff,%eax
  4027ee:	e9 79 02 00 00       	jmpq   402a6c <submitr+0x746>
  4027f3:	4c 8d 84 24 40 80 00 	lea    0x8040(%rsp),%r8
  4027fa:	00 
  4027fb:	48 8d 4c 24 1c       	lea    0x1c(%rsp),%rcx
  402800:	48 8d 94 24 40 60 00 	lea    0x6040(%rsp),%rdx
  402807:	00 
  402808:	be ef 35 40 00       	mov    $0x4035ef,%esi
  40280d:	48 8d bc 24 40 20 00 	lea    0x2040(%rsp),%rdi
  402814:	00 
  402815:	b8 00 00 00 00       	mov    $0x0,%eax
  40281a:	e8 c1 e5 ff ff       	callq  400de0 <__isoc99_sscanf@plt>
  40281f:	e9 95 00 00 00       	jmpq   4028b9 <submitr+0x593>
  402824:	ba 00 20 00 00       	mov    $0x2000,%edx
  402829:	48 8d b4 24 40 20 00 	lea    0x2040(%rsp),%rsi
  402830:	00 
  402831:	48 8d 7c 24 30       	lea    0x30(%rsp),%rdi
  402836:	e8 34 f9 ff ff       	callq  40216f <rio_readlineb>
  40283b:	48 85 c0             	test   %rax,%rax
  40283e:	7f 79                	jg     4028b9 <submitr+0x593>
  402840:	48 b8 45 72 72 6f 72 	movabs $0x43203a726f727245,%rax
  402847:	3a 20 43 
  40284a:	48 89 03             	mov    %rax,(%rbx)
  40284d:	48 b8 6c 69 65 6e 74 	movabs $0x6e7520746e65696c,%rax
  402854:	20 75 6e 
  402857:	48 89 43 08          	mov    %rax,0x8(%rbx)
  40285b:	48 b8 61 62 6c 65 20 	movabs $0x206f7420656c6261,%rax
  402862:	74 6f 20 
  402865:	48 89 43 10          	mov    %rax,0x10(%rbx)
  402869:	48 b8 72 65 61 64 20 	movabs $0x6165682064616572,%rax
  402870:	68 65 61 
  402873:	48 89 43 18          	mov    %rax,0x18(%rbx)
  402877:	48 b8 64 65 72 73 20 	movabs $0x6f72662073726564,%rax
  40287e:	66 72 6f 
  402881:	48 89 43 20          	mov    %rax,0x20(%rbx)
  402885:	48 b8 6d 20 74 68 65 	movabs $0x657220656874206d,%rax
  40288c:	20 72 65 
  40288f:	48 89 43 28          	mov    %rax,0x28(%rbx)
  402893:	48 b8 73 75 6c 74 20 	movabs $0x72657320746c7573,%rax
  40289a:	73 65 72 
  40289d:	48 89 43 30          	mov    %rax,0x30(%rbx)
  4028a1:	c7 43 38 76 65 72 00 	movl   $0x726576,0x38(%rbx)
  4028a8:	89 ef                	mov    %ebp,%edi
  4028aa:	e8 81 e4 ff ff       	callq  400d30 <close@plt>
  4028af:	b8 ff ff ff ff       	mov    $0xffffffff,%eax
  4028b4:	e9 b3 01 00 00       	jmpq   402a6c <submitr+0x746>
  4028b9:	0f b6 94 24 40 20 00 	movzbl 0x2040(%rsp),%edx
  4028c0:	00 
  4028c1:	b8 0d 00 00 00       	mov    $0xd,%eax
  4028c6:	29 d0                	sub    %edx,%eax
  4028c8:	75 1b                	jne    4028e5 <submitr+0x5bf>
  4028ca:	0f b6 94 24 41 20 00 	movzbl 0x2041(%rsp),%edx
  4028d1:	00 
  4028d2:	b8 0a 00 00 00       	mov    $0xa,%eax
  4028d7:	29 d0                	sub    %edx,%eax
  4028d9:	75 0a                	jne    4028e5 <submitr+0x5bf>
  4028db:	0f b6 84 24 42 20 00 	movzbl 0x2042(%rsp),%eax
  4028e2:	00 
  4028e3:	f7 d8                	neg    %eax
  4028e5:	85 c0                	test   %eax,%eax
  4028e7:	0f 85 37 ff ff ff    	jne    402824 <submitr+0x4fe>
  4028ed:	ba 00 20 00 00       	mov    $0x2000,%edx
  4028f2:	48 8d b4 24 40 20 00 	lea    0x2040(%rsp),%rsi
  4028f9:	00 
  4028fa:	48 8d 7c 24 30       	lea    0x30(%rsp),%rdi
  4028ff:	e8 6b f8 ff ff       	callq  40216f <rio_readlineb>
  402904:	48 85 c0             	test   %rax,%rax
  402907:	0f 8f 83 00 00 00    	jg     402990 <submitr+0x66a>
  40290d:	48 b8 45 72 72 6f 72 	movabs $0x43203a726f727245,%rax
  402914:	3a 20 43 
  402917:	48 89 03             	mov    %rax,(%rbx)
  40291a:	48 b8 6c 69 65 6e 74 	movabs $0x6e7520746e65696c,%rax
  402921:	20 75 6e 
  402924:	48 89 43 08          	mov    %rax,0x8(%rbx)
  402928:	48 b8 61 62 6c 65 20 	movabs $0x206f7420656c6261,%rax
  40292f:	74 6f 20 
  402932:	48 89 43 10          	mov    %rax,0x10(%rbx)
  402936:	48 b8 72 65 61 64 20 	movabs $0x6174732064616572,%rax
  40293d:	73 74 61 
  402940:	48 89 43 18          	mov    %rax,0x18(%rbx)
  402944:	48 b8 74 75 73 20 6d 	movabs $0x7373656d20737574,%rax
  40294b:	65 73 73 
  40294e:	48 89 43 20          	mov    %rax,0x20(%rbx)
  402952:	48 b8 61 67 65 20 66 	movabs $0x6d6f726620656761,%rax
  402959:	72 6f 6d 
  40295c:	48 89 43 28          	mov    %rax,0x28(%rbx)
  402960:	48 b8 20 72 65 73 75 	movabs $0x20746c7573657220,%rax
  402967:	6c 74 20 
  40296a:	48 89 43 30          	mov    %rax,0x30(%rbx)
  40296e:	c7 43 38 73 65 72 76 	movl   $0x76726573,0x38(%rbx)
  402975:	66 c7 43 3c 65 72    	movw   $0x7265,0x3c(%rbx)
  40297b:	c6 43 3e 00          	movb   $0x0,0x3e(%rbx)
  40297f:	89 ef                	mov    %ebp,%edi
  402981:	e8 aa e3 ff ff       	callq  400d30 <close@plt>
  402986:	b8 ff ff ff ff       	mov    $0xffffffff,%eax
  40298b:	e9 dc 00 00 00       	jmpq   402a6c <submitr+0x746>
  402990:	44 8b 44 24 1c       	mov    0x1c(%rsp),%r8d
  402995:	41 81 f8 c8 00 00 00 	cmp    $0xc8,%r8d
  40299c:	74 37                	je     4029d5 <submitr+0x6af>
  40299e:	4c 8d 8c 24 40 80 00 	lea    0x8040(%rsp),%r9
  4029a5:	00 
  4029a6:	b9 b8 35 40 00       	mov    $0x4035b8,%ecx
  4029ab:	48 c7 c2 ff ff ff ff 	mov    $0xffffffffffffffff,%rdx
  4029b2:	be 01 00 00 00       	mov    $0x1,%esi
  4029b7:	48 89 df             	mov    %rbx,%rdi
  4029ba:	b8 00 00 00 00       	mov    $0x0,%eax
  4029bf:	e8 bc e4 ff ff       	callq  400e80 <__sprintf_chk@plt>
  4029c4:	89 ef                	mov    %ebp,%edi
  4029c6:	e8 65 e3 ff ff       	callq  400d30 <close@plt>
  4029cb:	b8 ff ff ff ff       	mov    $0xffffffff,%eax
  4029d0:	e9 97 00 00 00       	jmpq   402a6c <submitr+0x746>
  4029d5:	48 8d b4 24 40 20 00 	lea    0x2040(%rsp),%rsi
  4029dc:	00 
  4029dd:	48 89 df             	mov    %rbx,%rdi
  4029e0:	e8 db e2 ff ff       	callq  400cc0 <strcpy@plt>
  4029e5:	89 ef                	mov    %ebp,%edi
  4029e7:	e8 44 e3 ff ff       	callq  400d30 <close@plt>
  4029ec:	0f b6 03             	movzbl (%rbx),%eax
  4029ef:	ba 4f 00 00 00       	mov    $0x4f,%edx
  4029f4:	29 c2                	sub    %eax,%edx
  4029f6:	75 22                	jne    402a1a <submitr+0x6f4>
  4029f8:	0f b6 4b 01          	movzbl 0x1(%rbx),%ecx
  4029fc:	b8 4b 00 00 00       	mov    $0x4b,%eax
  402a01:	29 c8                	sub    %ecx,%eax
  402a03:	75 17                	jne    402a1c <submitr+0x6f6>
  402a05:	0f b6 4b 02          	movzbl 0x2(%rbx),%ecx
  402a09:	b8 0a 00 00 00       	mov    $0xa,%eax
  402a0e:	29 c8                	sub    %ecx,%eax
  402a10:	75 0a                	jne    402a1c <submitr+0x6f6>
  402a12:	0f b6 43 03          	movzbl 0x3(%rbx),%eax
  402a16:	f7 d8                	neg    %eax
  402a18:	eb 02                	jmp    402a1c <submitr+0x6f6>
  402a1a:	89 d0                	mov    %edx,%eax
  402a1c:	85 c0                	test   %eax,%eax
  402a1e:	74 40                	je     402a60 <submitr+0x73a>
  402a20:	bf 00 36 40 00       	mov    $0x403600,%edi
  402a25:	b9 05 00 00 00       	mov    $0x5,%ecx
  402a2a:	48 89 de             	mov    %rbx,%rsi
  402a2d:	f3 a6                	repz cmpsb %es:(%rdi),%ds:(%rsi)
  402a2f:	0f 97 c0             	seta   %al
  402a32:	0f 92 c1             	setb   %cl
  402a35:	29 c8                	sub    %ecx,%eax
  402a37:	0f be c0             	movsbl %al,%eax
  402a3a:	85 c0                	test   %eax,%eax
  402a3c:	74 2e                	je     402a6c <submitr+0x746>
  402a3e:	85 d2                	test   %edx,%edx
  402a40:	75 13                	jne    402a55 <submitr+0x72f>
  402a42:	0f b6 43 01          	movzbl 0x1(%rbx),%eax
  402a46:	ba 4b 00 00 00       	mov    $0x4b,%edx
  402a4b:	29 c2                	sub    %eax,%edx
  402a4d:	75 06                	jne    402a55 <submitr+0x72f>
  402a4f:	0f b6 53 02          	movzbl 0x2(%rbx),%edx
  402a53:	f7 da                	neg    %edx
  402a55:	85 d2                	test   %edx,%edx
  402a57:	75 0e                	jne    402a67 <submitr+0x741>
  402a59:	b8 00 00 00 00       	mov    $0x0,%eax
  402a5e:	eb 0c                	jmp    402a6c <submitr+0x746>
  402a60:	b8 00 00 00 00       	mov    $0x0,%eax
  402a65:	eb 05                	jmp    402a6c <submitr+0x746>
  402a67:	b8 ff ff ff ff       	mov    $0xffffffff,%eax
  402a6c:	48 8b 9c 24 48 a0 00 	mov    0xa048(%rsp),%rbx
  402a73:	00 
  402a74:	64 48 33 1c 25 28 00 	xor    %fs:0x28,%rbx
  402a7b:	00 00 
  402a7d:	74 05                	je     402a84 <submitr+0x75e>
  402a7f:	e8 6c e2 ff ff       	callq  400cf0 <__stack_chk_fail@plt>
  402a84:	48 81 c4 58 a0 00 00 	add    $0xa058,%rsp
  402a8b:	5b                   	pop    %rbx
  402a8c:	5d                   	pop    %rbp
  402a8d:	41 5c                	pop    %r12
  402a8f:	41 5d                	pop    %r13
  402a91:	41 5e                	pop    %r14
  402a93:	41 5f                	pop    %r15
  402a95:	c3                   	retq   

0000000000402a96 <init_timeout>:
  402a96:	85 ff                	test   %edi,%edi
  402a98:	74 23                	je     402abd <init_timeout+0x27>
  402a9a:	53                   	push   %rbx
  402a9b:	89 fb                	mov    %edi,%ebx
  402a9d:	85 ff                	test   %edi,%edi
  402a9f:	79 05                	jns    402aa6 <init_timeout+0x10>
  402aa1:	bb 00 00 00 00       	mov    $0x0,%ebx
  402aa6:	be 5a 20 40 00       	mov    $0x40205a,%esi
  402aab:	bf 0e 00 00 00       	mov    $0xe,%edi
  402ab0:	e8 ab e2 ff ff       	callq  400d60 <signal@plt>
  402ab5:	89 df                	mov    %ebx,%edi
  402ab7:	e8 64 e2 ff ff       	callq  400d20 <alarm@plt>
  402abc:	5b                   	pop    %rbx
  402abd:	f3 c3                	repz retq 

0000000000402abf <init_driver>:
  402abf:	55                   	push   %rbp
  402ac0:	53                   	push   %rbx
  402ac1:	48 83 ec 28          	sub    $0x28,%rsp
  402ac5:	48 89 fd             	mov    %rdi,%rbp
  402ac8:	64 48 8b 04 25 28 00 	mov    %fs:0x28,%rax
  402acf:	00 00 
  402ad1:	48 89 44 24 18       	mov    %rax,0x18(%rsp)
  402ad6:	31 c0                	xor    %eax,%eax
  402ad8:	be 01 00 00 00       	mov    $0x1,%esi
  402add:	bf 0d 00 00 00       	mov    $0xd,%edi
  402ae2:	e8 79 e2 ff ff       	callq  400d60 <signal@plt>
  402ae7:	be 01 00 00 00       	mov    $0x1,%esi
  402aec:	bf 1d 00 00 00       	mov    $0x1d,%edi
  402af1:	e8 6a e2 ff ff       	callq  400d60 <signal@plt>
  402af6:	be 01 00 00 00       	mov    $0x1,%esi
  402afb:	bf 1d 00 00 00       	mov    $0x1d,%edi
  402b00:	e8 5b e2 ff ff       	callq  400d60 <signal@plt>
  402b05:	ba 00 00 00 00       	mov    $0x0,%edx
  402b0a:	be 01 00 00 00       	mov    $0x1,%esi
  402b0f:	bf 02 00 00 00       	mov    $0x2,%edi
  402b14:	e8 77 e3 ff ff       	callq  400e90 <socket@plt>
  402b19:	85 c0                	test   %eax,%eax
  402b1b:	79 4f                	jns    402b6c <init_driver+0xad>
  402b1d:	48 b8 45 72 72 6f 72 	movabs $0x43203a726f727245,%rax
  402b24:	3a 20 43 
  402b27:	48 89 45 00          	mov    %rax,0x0(%rbp)
  402b2b:	48 b8 6c 69 65 6e 74 	movabs $0x6e7520746e65696c,%rax
  402b32:	20 75 6e 
  402b35:	48 89 45 08          	mov    %rax,0x8(%rbp)
  402b39:	48 b8 61 62 6c 65 20 	movabs $0x206f7420656c6261,%rax
  402b40:	74 6f 20 
  402b43:	48 89 45 10          	mov    %rax,0x10(%rbp)
  402b47:	48 b8 63 72 65 61 74 	movabs $0x7320657461657263,%rax
  402b4e:	65 20 73 
  402b51:	48 89 45 18          	mov    %rax,0x18(%rbp)
  402b55:	c7 45 20 6f 63 6b 65 	movl   $0x656b636f,0x20(%rbp)
  402b5c:	66 c7 45 24 74 00    	movw   $0x74,0x24(%rbp)
  402b62:	b8 ff ff ff ff       	mov    $0xffffffff,%eax
  402b67:	e9 2a 01 00 00       	jmpq   402c96 <init_driver+0x1d7>
  402b6c:	89 c3                	mov    %eax,%ebx
  402b6e:	bf 05 36 40 00       	mov    $0x403605,%edi
  402b73:	e8 f8 e1 ff ff       	callq  400d70 <gethostbyname@plt>
  402b78:	48 85 c0             	test   %rax,%rax
  402b7b:	75 68                	jne    402be5 <init_driver+0x126>
  402b7d:	48 b8 45 72 72 6f 72 	movabs $0x44203a726f727245,%rax
  402b84:	3a 20 44 
  402b87:	48 89 45 00          	mov    %rax,0x0(%rbp)
  402b8b:	48 b8 4e 53 20 69 73 	movabs $0x6e7520736920534e,%rax
  402b92:	20 75 6e 
  402b95:	48 89 45 08          	mov    %rax,0x8(%rbp)
  402b99:	48 b8 61 62 6c 65 20 	movabs $0x206f7420656c6261,%rax
  402ba0:	74 6f 20 
  402ba3:	48 89 45 10          	mov    %rax,0x10(%rbp)
  402ba7:	48 b8 72 65 73 6f 6c 	movabs $0x2065766c6f736572,%rax
  402bae:	76 65 20 
  402bb1:	48 89 45 18          	mov    %rax,0x18(%rbp)
  402bb5:	48 b8 73 65 72 76 65 	movabs $0x6120726576726573,%rax
  402bbc:	72 20 61 
  402bbf:	48 89 45 20          	mov    %rax,0x20(%rbp)
  402bc3:	c7 45 28 64 64 72 65 	movl   $0x65726464,0x28(%rbp)
  402bca:	66 c7 45 2c 73 73    	movw   $0x7373,0x2c(%rbp)
  402bd0:	c6 45 2e 00          	movb   $0x0,0x2e(%rbp)
  402bd4:	89 df                	mov    %ebx,%edi
  402bd6:	e8 55 e1 ff ff       	callq  400d30 <close@plt>
  402bdb:	b8 ff ff ff ff       	mov    $0xffffffff,%eax
  402be0:	e9 b1 00 00 00       	jmpq   402c96 <init_driver+0x1d7>
  402be5:	48 c7 04 24 00 00 00 	movq   $0x0,(%rsp)
  402bec:	00 
  402bed:	48 c7 44 24 08 00 00 	movq   $0x0,0x8(%rsp)
  402bf4:	00 00 
  402bf6:	66 c7 04 24 02 00    	movw   $0x2,(%rsp)
  402bfc:	48 63 50 14          	movslq 0x14(%rax),%rdx
  402c00:	48 8b 40 18          	mov    0x18(%rax),%rax
  402c04:	48 8b 30             	mov    (%rax),%rsi
  402c07:	48 8d 7c 24 04       	lea    0x4(%rsp),%rdi
  402c0c:	b9 0c 00 00 00       	mov    $0xc,%ecx
  402c11:	e8 6a e1 ff ff       	callq  400d80 <__memmove_chk@plt>
  402c16:	66 c7 44 24 02 3c 9a 	movw   $0x9a3c,0x2(%rsp)
  402c1d:	ba 10 00 00 00       	mov    $0x10,%edx
  402c22:	48 89 e6             	mov    %rsp,%rsi
  402c25:	89 df                	mov    %ebx,%edi
  402c27:	e8 34 e2 ff ff       	callq  400e60 <connect@plt>
  402c2c:	85 c0                	test   %eax,%eax
  402c2e:	79 50                	jns    402c80 <init_driver+0x1c1>
  402c30:	48 b8 45 72 72 6f 72 	movabs $0x55203a726f727245,%rax
  402c37:	3a 20 55 
  402c3a:	48 89 45 00          	mov    %rax,0x0(%rbp)
  402c3e:	48 b8 6e 61 62 6c 65 	movabs $0x6f7420656c62616e,%rax
  402c45:	20 74 6f 
  402c48:	48 89 45 08          	mov    %rax,0x8(%rbp)
  402c4c:	48 b8 20 63 6f 6e 6e 	movabs $0x7463656e6e6f6320,%rax
  402c53:	65 63 74 
  402c56:	48 89 45 10          	mov    %rax,0x10(%rbp)
  402c5a:	48 b8 20 74 6f 20 73 	movabs $0x76726573206f7420,%rax
  402c61:	65 72 76 
  402c64:	48 89 45 18          	mov    %rax,0x18(%rbp)
  402c68:	66 c7 45 20 65 72    	movw   $0x7265,0x20(%rbp)
  402c6e:	c6 45 22 00          	movb   $0x0,0x22(%rbp)
  402c72:	89 df                	mov    %ebx,%edi
  402c74:	e8 b7 e0 ff ff       	callq  400d30 <close@plt>
  402c79:	b8 ff ff ff ff       	mov    $0xffffffff,%eax
  402c7e:	eb 16                	jmp    402c96 <init_driver+0x1d7>
  402c80:	89 df                	mov    %ebx,%edi
  402c82:	e8 a9 e0 ff ff       	callq  400d30 <close@plt>
  402c87:	66 c7 45 00 4f 4b    	movw   $0x4b4f,0x0(%rbp)
  402c8d:	c6 45 02 00          	movb   $0x0,0x2(%rbp)
  402c91:	b8 00 00 00 00       	mov    $0x0,%eax
  402c96:	48 8b 4c 24 18       	mov    0x18(%rsp),%rcx
  402c9b:	64 48 33 0c 25 28 00 	xor    %fs:0x28,%rcx
  402ca2:	00 00 
  402ca4:	74 05                	je     402cab <init_driver+0x1ec>
  402ca6:	e8 45 e0 ff ff       	callq  400cf0 <__stack_chk_fail@plt>
  402cab:	48 83 c4 28          	add    $0x28,%rsp
  402caf:	5b                   	pop    %rbx
  402cb0:	5d                   	pop    %rbp
  402cb1:	c3                   	retq   

0000000000402cb2 <driver_post>:
  402cb2:	53                   	push   %rbx
  402cb3:	4c 89 cb             	mov    %r9,%rbx
  402cb6:	45 85 c0             	test   %r8d,%r8d
  402cb9:	74 27                	je     402ce2 <driver_post+0x30>
  402cbb:	48 89 ca             	mov    %rcx,%rdx
  402cbe:	be 1a 36 40 00       	mov    $0x40361a,%esi
  402cc3:	bf 01 00 00 00       	mov    $0x1,%edi
  402cc8:	b8 00 00 00 00       	mov    $0x0,%eax
  402ccd:	e8 2e e1 ff ff       	callq  400e00 <__printf_chk@plt>
  402cd2:	66 c7 03 4f 4b       	movw   $0x4b4f,(%rbx)
  402cd7:	c6 43 02 00          	movb   $0x0,0x2(%rbx)
  402cdb:	b8 00 00 00 00       	mov    $0x0,%eax
  402ce0:	eb 3f                	jmp    402d21 <driver_post+0x6f>
  402ce2:	48 85 ff             	test   %rdi,%rdi
  402ce5:	74 2c                	je     402d13 <driver_post+0x61>
  402ce7:	80 3f 00             	cmpb   $0x0,(%rdi)
  402cea:	74 27                	je     402d13 <driver_post+0x61>
  402cec:	48 83 ec 08          	sub    $0x8,%rsp
  402cf0:	41 51                	push   %r9
  402cf2:	49 89 c9             	mov    %rcx,%r9
  402cf5:	49 89 d0             	mov    %rdx,%r8
  402cf8:	48 89 f9             	mov    %rdi,%rcx
  402cfb:	48 89 f2             	mov    %rsi,%rdx
  402cfe:	be 9a 3c 00 00       	mov    $0x3c9a,%esi
  402d03:	bf 05 36 40 00       	mov    $0x403605,%edi
  402d08:	e8 19 f6 ff ff       	callq  402326 <submitr>
  402d0d:	48 83 c4 10          	add    $0x10,%rsp
  402d11:	eb 0e                	jmp    402d21 <driver_post+0x6f>
  402d13:	66 c7 03 4f 4b       	movw   $0x4b4f,(%rbx)
  402d18:	c6 43 02 00          	movb   $0x0,0x2(%rbx)
  402d1c:	b8 00 00 00 00       	mov    $0x0,%eax
  402d21:	5b                   	pop    %rbx
  402d22:	c3                   	retq   

0000000000402d23 <check>:
  402d23:	89 f8                	mov    %edi,%eax
  402d25:	c1 e8 1c             	shr    $0x1c,%eax
  402d28:	85 c0                	test   %eax,%eax
  402d2a:	74 1d                	je     402d49 <check+0x26>
  402d2c:	b9 00 00 00 00       	mov    $0x0,%ecx
  402d31:	eb 0b                	jmp    402d3e <check+0x1b>
  402d33:	89 f8                	mov    %edi,%eax
  402d35:	d3 e8                	shr    %cl,%eax
  402d37:	3c 0a                	cmp    $0xa,%al
  402d39:	74 14                	je     402d4f <check+0x2c>
  402d3b:	83 c1 08             	add    $0x8,%ecx
  402d3e:	83 f9 1f             	cmp    $0x1f,%ecx
  402d41:	7e f0                	jle    402d33 <check+0x10>
  402d43:	b8 01 00 00 00       	mov    $0x1,%eax
  402d48:	c3                   	retq   
  402d49:	b8 00 00 00 00       	mov    $0x0,%eax
  402d4e:	c3                   	retq   
  402d4f:	b8 00 00 00 00       	mov    $0x0,%eax
  402d54:	c3                   	retq   

0000000000402d55 <gencookie>:
  402d55:	53                   	push   %rbx
  402d56:	83 c7 01             	add    $0x1,%edi
  402d59:	e8 42 df ff ff       	callq  400ca0 <srandom@plt>
  402d5e:	e8 5d e0 ff ff       	callq  400dc0 <random@plt>
  402d63:	89 c3                	mov    %eax,%ebx
  402d65:	89 c7                	mov    %eax,%edi
  402d67:	e8 b7 ff ff ff       	callq  402d23 <check>
  402d6c:	85 c0                	test   %eax,%eax
  402d6e:	74 ee                	je     402d5e <gencookie+0x9>
  402d70:	89 d8                	mov    %ebx,%eax
  402d72:	5b                   	pop    %rbx
  402d73:	c3                   	retq   
  402d74:	66 2e 0f 1f 84 00 00 	nopw   %cs:0x0(%rax,%rax,1)
  402d7b:	00 00 00 
  402d7e:	66 90                	xchg   %ax,%ax

0000000000402d80 <__libc_csu_init>:
  402d80:	41 57                	push   %r15
  402d82:	41 56                	push   %r14
  402d84:	41 89 ff             	mov    %edi,%r15d
  402d87:	41 55                	push   %r13
  402d89:	41 54                	push   %r12
  402d8b:	4c 8d 25 7e 10 20 00 	lea    0x20107e(%rip),%r12        # 603e10 <__frame_dummy_init_array_entry>
  402d92:	55                   	push   %rbp
  402d93:	48 8d 2d 7e 10 20 00 	lea    0x20107e(%rip),%rbp        # 603e18 <__init_array_end>
  402d9a:	53                   	push   %rbx
  402d9b:	49 89 f6             	mov    %rsi,%r14
  402d9e:	49 89 d5             	mov    %rdx,%r13
  402da1:	4c 29 e5             	sub    %r12,%rbp
  402da4:	48 83 ec 08          	sub    $0x8,%rsp
  402da8:	48 c1 fd 03          	sar    $0x3,%rbp
  402dac:	e8 97 de ff ff       	callq  400c48 <_init>
  402db1:	48 85 ed             	test   %rbp,%rbp
  402db4:	74 20                	je     402dd6 <__libc_csu_init+0x56>
  402db6:	31 db                	xor    %ebx,%ebx
  402db8:	0f 1f 84 00 00 00 00 	nopl   0x0(%rax,%rax,1)
  402dbf:	00 
  402dc0:	4c 89 ea             	mov    %r13,%rdx
  402dc3:	4c 89 f6             	mov    %r14,%rsi
  402dc6:	44 89 ff             	mov    %r15d,%edi
  402dc9:	41 ff 14 dc          	callq  *(%r12,%rbx,8)
  402dcd:	48 83 c3 01          	add    $0x1,%rbx
  402dd1:	48 39 eb             	cmp    %rbp,%rbx
  402dd4:	75 ea                	jne    402dc0 <__libc_csu_init+0x40>
  402dd6:	48 83 c4 08          	add    $0x8,%rsp
  402dda:	5b                   	pop    %rbx
  402ddb:	5d                   	pop    %rbp
  402ddc:	41 5c                	pop    %r12
  402dde:	41 5d                	pop    %r13
  402de0:	41 5e                	pop    %r14
  402de2:	41 5f                	pop    %r15
  402de4:	c3                   	retq   
  402de5:	90                   	nop
  402de6:	66 2e 0f 1f 84 00 00 	nopw   %cs:0x0(%rax,%rax,1)
  402ded:	00 00 00 

0000000000402df0 <__libc_csu_fini>:
  402df0:	f3 c3                	repz retq 

Disassembly of section .fini:

0000000000402df4 <_fini>:
  402df4:	48 83 ec 08          	sub    $0x8,%rsp
  402df8:	48 83 c4 08          	add    $0x8,%rsp
  402dfc:	c3                   	retq   
